 settings

 Timestamp is 51317314 (Sat Mar 02 11:33:40 2013)

 Preferred load address is 00010000

 Start         Length     Name                   Class
 0001:00000000 000286a4H .text                   CODE
 0001:000286c0 000004b8H .text$yc                CODE
 0001:00028b78 00000104H .text$yd                CODE
 0002:00000000 00000004H .CRT$XCA                DATA
 0002:00000004 0000008cH .CRT$XCU                DATA
 0002:00000090 00000004H .CRT$XCZ                DATA
 0002:00000094 00000004H .CRT$XIA                DATA
 0002:00000098 00000004H .CRT$XIZ                DATA
 0002:0000009c 00000004H .CRT$XPA                DATA
 0002:000000a0 00000004H .CRT$XPZ                DATA
 0002:000000a4 00000004H .CRT$XTA                DATA
 0002:000000a8 00000004H .CRT$XTZ                DATA
 0002:000000b0 00057778H .rdata                  DATA
 0002:00057828 000014a4H .rdata$r                DATA
 0002:00058ccc 00000050H .xdata                  DATA
 0002:00058d1c 000000e8H .xdata$x                DATA
 0002:00058e04 00000050H .idata$2                DATA
 0002:00058e54 00000014H .idata$3                DATA
 0002:00058e68 0000099cH .idata$4                DATA
 0002:00059804 000061ceH .idata$6                DATA
 0002:0005f9d2 00000000H .edata                  DATA
 0003:00000000 0000099cH .idata$5                DATA
 0003:0000099c 00000a62H .data                   DATA
 0003:00001400 00000098H .bss                    DATA
 0004:00000000 000012d8H .pdata                  DATA

  Address         Publics by Value              Rva+Base       Lib:Object

 0000:00000000       ___safe_se_handler_count   00000000     <absolute>
 0000:00000000       ___safe_se_handler_table   00000000     <absolute>
 0001:00000000       main                       00011000 f   main.obj
 0001:00000140       ??1Window@Settings@@UAA@XZ 00011140 f i main.obj
 0001:00000240       ?deleteNode2@?$QHash@VQModelIndex@@PAVQWidget@@@@CAXPAUNode@QHashData@@@Z 00011240 f i main.obj
 0001:00000250       ??0ListView@Settings@@QAA@_NPAVQWidget@@@Z 00011250 f   listview.obj
 0001:00000374       ??_EListView@Settings@@UAAPAXI@Z 00011374 f i  CIL library: CIL module
 0001:00000374       ??_GListView@Settings@@UAAPAXI@Z 00011374 f i listview.obj
 0001:0000039c       ??1ListView@Settings@@UAA@XZ 0001139c f   listview.obj
 0001:00000494       ?init@ListView@Settings@@QAAXXZ 00011494 f   listview.obj
 0001:000008cc       ??_EQWidget@@UAAPAXI@Z     000118cc f i  CIL library: CIL module
 0001:000008cc       ??_GQWidget@@UAAPAXI@Z     000118cc f i listview.obj
 0001:00000900       ??_GQPixmap@@UAAPAXI@Z     00011900 f i listview.obj
 0001:00000900       ??_EQPixmap@@UAAPAXI@Z     00011900 f i  CIL library: CIL module
 0001:00000934       ?sizeHint@ListView@Settings@@UBA?AVQSize@@XZ 00011934 f   listview.obj
 0001:000009dc       ?scrollBy@ListView@Settings@@IAAXH@Z 000119dc f   listview.obj
 0001:00000b3c       ?setModel@ListView@Settings@@QAAXPAVQAbstractItemModel@@@Z 00011b3c f   listview.obj
 0001:00000bd4       ?mousePressEvent@ListView@Settings@@MAAXPAVQMouseEvent@@@Z 00011bd4 f   listview.obj
 0001:00000de4       ?mouseMoveEvent@ListView@Settings@@MAAXPAVQMouseEvent@@@Z 00011de4 f   listview.obj
 0001:00000e8c       ?mouseReleaseEvent@ListView@Settings@@MAAXPAVQMouseEvent@@@Z 00011e8c f   listview.obj
 0001:000010cc       ?render@ListView@Settings@@IAAXXZ 000120cc f   listview.obj
 0001:00001ac8       ?paintEvent@ListView@Settings@@MAAXPAVQPaintEvent@@@Z 00012ac8 f   listview.obj
 0001:00001fd0       ?timerEvent@ListView@Settings@@MAAXPAVQTimerEvent@@@Z 00012fd0 f   listview.obj
 0001:00002090       ?reset@ListView@Settings@@QAAXXZ 00013090 f   listview.obj
 0001:000021b0       ?updateEditorGeometry@ListView@Settings@@IAAXABVQRect@@H@Z 000131b0 f   listview.obj
 0001:000022c4       ?updateEditorPos@ListView@Settings@@IAAXHH@Z 000132c4 f   listview.obj
 0001:00002354       ?openPersistentEditor@ListView@Settings@@IAAXH@Z 00013354 f   listview.obj
 0001:000026b0       ?openEditor@ListView@Settings@@IAAXH@Z 000136b0 f   listview.obj
 0001:00002894       ?commitData@ListView@Settings@@IAAXPAVBaseEditor@2@@Z 00013894 f   listview.obj
 0001:0000295c       ?dataChanged@ListView@Settings@@IAAXABVQModelIndex@@0@Z 0001395c f   listview.obj
 0001:00002b18       ?changeEvent@ListView@Settings@@MAAXPAVQEvent@@@Z 00013b18 f   listview.obj
 0001:00002b48       ?key@?$QHash@HPAVBaseEditor@Settings@@@@QBA?BHABQAVBaseEditor@Settings@@ABH@Z 00013b48 f i listview.obj
 0001:00002bdc       ?value@?$QHash@HPAVBaseEditor@Settings@@@@QBAQAVBaseEditor@Settings@@ABHABQAV23@@Z 00013bdc f i listview.obj
 0001:00002c6c       ??A?$QHash@HPAVBaseEditor@Settings@@@@QAAAAPAVBaseEditor@Settings@@ABH@Z 00013c6c f i listview.obj
 0001:00002dc4       ?findNode@?$QHash@HPAVBaseEditor@Settings@@@@ABAPAPAU?$QHashNode@HPAVBaseEditor@Settings@@@@ABHPAI@Z 00013dc4 f i listview.obj
 0001:00002e40       ?deleteNode2@?$QHash@HPAVBaseEditor@Settings@@@@CAXPAUNode@QHashData@@@Z 00013e40 f i listview.obj
 0001:00002e60       ?duplicateNode@?$QHash@HPAVBaseEditor@Settings@@@@CAXPAUNode@QHashData@@PAX@Z 00013e60 f i listview.obj
 0001:00002e70       ??_EQWidget@@W7AAPAXI@Z    00013e70 f i listview.obj
 0001:00002e78       ??_EListView@Settings@@W7AAPAXI@Z 00013e78 f i listview.obj
 0001:00002e80       ??1bad_alloc@std@@UAA@XZ   00013e80 f i window.obj
 0001:00002e94       ??_Ebad_alloc@std@@UAAPAXI@Z 00013e94 f i  CIL library: CIL module
 0001:00002e94       ??_Gbad_alloc@std@@UAAPAXI@Z 00013e94 f i window.obj
 0001:00002ec8       ?translatorName@Window@Settings@@MBA?AVQString@@XZ 00013ec8 f i window.obj
 0001:00002f04       ??0Window@Settings@@QAA@PAVQWidget@@@Z 00013f04 f   window.obj
 0001:00003000       ??_EWindow@Settings@@UAAPAXI@Z 00014000 f i  CIL library: CIL module
 0001:00003000       ??_GWindow@Settings@@UAAPAXI@Z 00014000 f i window.obj
 0001:00003028       ?init@Window@Settings@@QAAXXZ 00014028 f   window.obj
 0001:000031d8       ?createPage@Window@Settings@@IAAPAVQWidget@@ABVQModelIndex@@@Z 000141d8 f   window.obj
 0001:00003314       ?event@Window@Settings@@MAA_NPAVQEvent@@@Z 00014314 f   window.obj
 0001:00003340       ?eventFilter@Window@Settings@@MAA_NPAVQObject@@PAVQEvent@@@Z 00014340 f   window.obj
 0001:00003440       ?winEvent@Window@Settings@@MAA_NPAUtagMSG@@PAJ@Z 00014440 f   window.obj
 0001:00003a24       ?goForward@Window@Settings@@QAAXABVQModelIndex@@@Z 00014a24 f   window.obj
 0001:000042c0       ??_GQPropertyAnimation@@UAAPAXI@Z 000152c0 f i window.obj
 0001:000042c0       ??_EQPropertyAnimation@@UAAPAXI@Z 000152c0 f i  CIL library: CIL module
 0001:000042f4       ?goBackward@Window@Settings@@QAAXXZ 000152f4 f   window.obj
 0001:00004464       ?onShiftFinished@Window@Settings@@QAAXXZ 00015464 f   window.obj
 0001:0000459c       ??0?$basic_string@DU?$char_traits@D@std@@V?$allocator@D@2@@std@@QAA@PBD@Z 0001559c f i window.obj
 0001:000045dc       ??1?$basic_string@DU?$char_traits@D@std@@V?$allocator@D@2@@std@@QAA@XZ 000155dc f i window.obj
 0001:0000460c       ?assign@?$basic_string@DU?$char_traits@D@std@@V?$allocator@D@2@@std@@QAAAAV12@ABV12@II@Z 0001560c f i window.obj
 0001:000046f8       ?assign@?$basic_string@DU?$char_traits@D@std@@V?$allocator@D@2@@std@@QAAAAV12@PBDI@Z 000156f8 f i window.obj
 0001:0000480c       ?_Tidy@?$basic_string@DU?$char_traits@D@std@@V?$allocator@D@2@@std@@IAAX_NI@Z 0001580c f i window.obj
 0001:00004880       ?erase@?$basic_string@DU?$char_traits@D@std@@V?$allocator@D@2@@std@@QAAAAV12@II@Z 00015880 f i window.obj
 0001:0000493c       ?_Grow@?$basic_string@DU?$char_traits@D@std@@V?$allocator@D@2@@std@@IAA_NI_N@Z 0001593c f i window.obj
 0001:00004a00       ?_Copy@?$basic_string@DU?$char_traits@D@std@@V?$allocator@D@2@@std@@IAAXII@Z 00015a00 f i window.obj
 0001:00004b64       ?allocate@?$allocator@D@std@@QAAPADI@Z 00015b64 f i window.obj
 0001:00004bd0       ?pop@?$QStack@PAVQWidget@@@@QAAPAVQWidget@@XZ 00015bd0 f i window.obj
 0001:00004c80       ?top@?$QStack@PAVQWidget@@@@QAAAAPAVQWidget@@XZ 00015c80 f i window.obj
 0001:00004cf4       ?append@?$QVector@PAVQWidget@@@@QAAXABQAVQWidget@@@Z 00015cf4 f i window.obj
 0001:00004db4       ?remove@?$QHash@VQModelIndex@@PAVQWidget@@@@QAAHABVQModelIndex@@@Z 00015db4 f i window.obj
 0001:00004ee8       ?insert@?$QHash@VQModelIndex@@PAVQWidget@@@@QAA?AViterator@1@ABVQModelIndex@@ABQAVQWidget@@@Z 00015ee8 f i window.obj
 0001:00005080       ??0bad_alloc@std@@QAA@ABV01@@Z 00016080 f i window.obj
 0001:000050a0       ?detach@?$QHash@VQModelIndex@@PAVQWidget@@@@QAAXXZ 000160a0 f i window.obj
 0001:00005140       ?realloc@?$QVector@PAVQWidget@@@@AAAXHH@Z 00016140 f i window.obj
 0001:000052d0       ?key@?$QHash@VQModelIndex@@PAVQWidget@@@@QBA?BVQModelIndex@@ABQAVQWidget@@ABV2@@Z 000162d0 f i window.obj
 0001:000053b0       ?findNode@?$QHash@VQModelIndex@@PAVQWidget@@@@ABAPAPAU?$QHashNode@VQModelIndex@@PAVQWidget@@@@ABVQModelIndex@@PAI@Z 000163b0 f i window.obj
 0001:00005488       ?duplicateNode@?$QHash@VQModelIndex@@PAVQWidget@@@@CAXPAUNode@QHashData@@PAX@Z 00016488 f i window.obj
 0001:000054c8       ??_EWindow@Settings@@W7AAPAXI@Z 000164c8 f i window.obj
 0001:000054d0       ??6QStringList@@QAAAAV0@ABVQString@@@Z 000164d0 f i settingmodel.obj
 0001:00005564       ??_EFindNaviThread@Settings@@UAAPAXI@Z 00016564 f i  CIL library: CIL module
 0001:00005564       ??_GFindNaviThread@Settings@@UAAPAXI@Z 00016564 f i settingmodel.obj
 0001:00005598       ??0SettingItem@Settings@@QAA@ABVQString@@W4ItemType@1@V?$QFlags@W4ItemFlag@Qt@@@@PAV01@@Z 00016598 f i settingmodel.obj
 0001:0000563c       ?value@SettingItem@Settings@@QBA?AVQVariant@@XZ 0001663c f   settingmodel.obj
 0001:000058d0       ?setValue@SettingItem@Settings@@QAAXVQVariant@@@Z 000168d0 f   settingmodel.obj
 0001:00005b34       ??_GSettingModel@Settings@@UAAPAXI@Z 00016b34 f i settingmodel.obj
 0001:00005b34       ??_ESettingModel@Settings@@UAAPAXI@Z 00016b34 f i  CIL library: CIL module
 0001:00005b68       ?index@SettingModel@Settings@@UBA?AVQModelIndex@@HHABV3@@Z 00016b68 f   settingmodel.obj
 0001:00005c34       ?parent@SettingModel@Settings@@UBA?AVQModelIndex@@ABV3@@Z 00016c34 f   settingmodel.obj
 0001:00005d60       ?rowCount@SettingModel@Settings@@UBAHABVQModelIndex@@@Z 00016d60 f   settingmodel.obj
 0001:00005e00       ?columnCount@SettingModel@Settings@@UBAHABVQModelIndex@@@Z 00016e00 f   settingmodel.obj
 0001:00005e08       ?data@SettingModel@Settings@@UBA?AVQVariant@@ABVQModelIndex@@H@Z 00016e08 f   settingmodel.obj
 0001:0000612c       ?setData@SettingModel@Settings@@UAA_NABVQModelIndex@@ABVQVariant@@H@Z 0001712c f   settingmodel.obj
 0001:0000626c       ?flags@SettingModel@Settings@@UBA?AV?$QFlags@W4ItemFlag@Qt@@@@ABVQModelIndex@@@Z 0001726c f   settingmodel.obj
 0001:000062c0       ?loadXml@SettingModel@Settings@@IAAXXZ 000172c0 f   settingmodel.obj
 0001:00007264       ??_GWalkModel@Settings@@UAAPAXI@Z 00018264 f i settingmodel.obj
 0001:00007264       ??_EWalkModel@Settings@@UAAPAXI@Z 00018264 f i  CIL library: CIL module
 0001:000072fc       ?mapFromSource@WalkModel@Settings@@UBA?AVQModelIndex@@ABV3@@Z 000182fc f   settingmodel.obj
 0001:000073cc       ?mapToSource@WalkModel@Settings@@UBA?AVQModelIndex@@ABV3@@Z 000183cc f   settingmodel.obj
 0001:000074e8       ?index@WalkModel@Settings@@UBA?AVQModelIndex@@HHABV3@@Z 000184e8 f   settingmodel.obj
 0001:00007508       ?parent@WalkModel@Settings@@UBA?AVQModelIndex@@ABV3@@Z 00018508 f   settingmodel.obj
 0001:00007534       ?rowCount@WalkModel@Settings@@UBAHABVQModelIndex@@@Z 00018534 f   settingmodel.obj
 0001:00007560       ?columnCount@WalkModel@Settings@@UBAHABVQModelIndex@@@Z 00018560 f   settingmodel.obj
 0001:00007568       ?flags@WalkModel@Settings@@UBA?AV?$QFlags@W4ItemFlag@Qt@@@@ABVQModelIndex@@@Z 00018568 f   settingmodel.obj
 0001:000075cc       ?data@WalkModel@Settings@@UBA?AVQVariant@@ABVQModelIndex@@H@Z 000185cc f   settingmodel.obj
 0001:000076e8       ?setData@WalkModel@Settings@@UAA_NABVQModelIndex@@ABVQVariant@@H@Z 000186e8 f   settingmodel.obj
 0001:000077f0       ??0VersionModel@Settings@@QAA@PAVQObject@@@Z 000187f0 f   settingmodel.obj
 0001:000080dc       ??_GVersionModel@Settings@@UAAPAXI@Z 000190dc f i settingmodel.obj
 0001:000080dc       ??_EVersionModel@Settings@@UAAPAXI@Z 000190dc f i  CIL library: CIL module
 0001:00008148       ?index@VersionModel@Settings@@UBA?AVQModelIndex@@HHABV3@@Z 00019148 f   settingmodel.obj
 0001:000081e4       ?parent@VersionModel@Settings@@UBA?AVQModelIndex@@ABV3@@Z 000191e4 f   settingmodel.obj
 0001:00008204       ?rowCount@VersionModel@Settings@@UBAHABVQModelIndex@@@Z 00019204 f   settingmodel.obj
 0001:00008260       ?columnCount@VersionModel@Settings@@UBAHABVQModelIndex@@@Z 00019260 f   settingmodel.obj
 0001:00008268       ?data@VersionModel@Settings@@UBA?AVQVariant@@ABVQModelIndex@@H@Z 00019268 f   settingmodel.obj
 0001:00008400       ?flags@VersionModel@Settings@@UBA?AV?$QFlags@W4ItemFlag@Qt@@@@ABVQModelIndex@@@Z 00019400 f   settingmodel.obj
 0001:00008410       ??0NaviPathModel@Settings@@QAA@PAVQObject@@@Z 00019410 f   settingmodel.obj
 0001:000084e8       ??_GNaviPathModel@Settings@@UAAPAXI@Z 000194e8 f i settingmodel.obj
 0001:000084e8       ??_ENaviPathModel@Settings@@UAAPAXI@Z 000194e8 f i  CIL library: CIL module
 0001:00008554       ?index@NaviPathModel@Settings@@UBA?AVQModelIndex@@HHABV3@@Z 00019554 f   settingmodel.obj
 0001:000085f0       ?parent@NaviPathModel@Settings@@UBA?AVQModelIndex@@ABV3@@Z 000195f0 f   settingmodel.obj
 0001:00008610       ?rowCount@NaviPathModel@Settings@@UBAHABVQModelIndex@@@Z 00019610 f   settingmodel.obj
 0001:00008660       ?columnCount@NaviPathModel@Settings@@UBAHABVQModelIndex@@@Z 00019660 f   settingmodel.obj
 0001:00008668       ?setData@NaviPathModel@Settings@@UAA_NABVQModelIndex@@ABVQVariant@@H@Z 00019668 f   settingmodel.obj
 0001:00008ae4       ?data@NaviPathModel@Settings@@UBA?AVQVariant@@ABVQModelIndex@@H@Z 00019ae4 f   settingmodel.obj
 0001:00008e9c       ?flags@NaviPathModel@Settings@@UBA?AV?$QFlags@W4ItemFlag@Qt@@@@ABVQModelIndex@@@Z 00019e9c f   settingmodel.obj
 0001:00008ec4       ?scanStart@NaviPathModel@Settings@@QAAXXZ 00019ec4 f   settingmodel.obj
 0001:00008fc8       ?cardRemove@NaviPathModel@Settings@@QAAXXZ 00019fc8 f   settingmodel.obj
 0001:000090ac       ?onScanFinished@NaviPathModel@Settings@@IAAXXZ 0001a0ac f   settingmodel.obj
 0001:000091c8       ?scan@NaviPathModel@Settings@@QAAXABVQString@@@Z 0001a1c8 f   settingmodel.obj
 0001:0000984c       ?run@FindNaviThread@Settings@@UAAXXZ 0001a84c f   settingmodel.obj
 0001:00009938       ?clear@?$QList@VQString@@@@QAAXXZ 0001a938 f i settingmodel.obj
 0001:000099f0       ?detach_helper@?$QList@VQString@@@@AAAXXZ 0001a9f0 f i settingmodel.obj
 0001:00009b00       ?clear@?$QList@H@@QAAXXZ   0001ab00 f i settingmodel.obj
 0001:00009bec       ?pop@?$QStack@PAVSettingItem@Settings@@@@QAAPAVSettingItem@Settings@@XZ 0001abec f i settingmodel.obj
 0001:00009c9c       ?free@?$QList@VQString@@@@AAAXPAUData@QListData@@@Z 0001ac9c f i settingmodel.obj
 0001:00009d14       ?detach_helper@?$QList@H@@AAAXXZ 0001ad14 f i settingmodel.obj
 0001:00009dd0       ?detach_helper@?$QList@VQFileInfo@@@@AAAXXZ 0001add0 f i settingmodel.obj
 0001:00009ee0       ?detach_helper@?$QList@PAVSettingItem@Settings@@@@AAAXXZ 0001aee0 f i settingmodel.obj
 0001:00009f9c       ?realloc@?$QVector@PAVSettingItem@Settings@@@@AAAXHH@Z 0001af9c f i settingmodel.obj
 0001:0000a12c       ?getPixmap@Resource@@SA_NABVQString@@PAVQPixmap@@@Z 0001b12c f   resource.obj
 0001:0000a220       ?imageRootPath@Resource@@SA?AVQString@@XZ 0001b220 f   resource.obj
 0001:0000a2e8       ?setWallpaper@Resource@@SA_NABVQString@@@Z 0001b2e8 f   resource.obj
 0001:0000a480       ??_GSlideSwitch@Settings@@UAAPAXI@Z 0001b480 f i slideswitch.obj
 0001:0000a480       ??_ESlideSwitch@Settings@@UAAPAXI@Z 0001b480 f i  CIL library: CIL module
 0001:0000a4e8       ?init@SlideSwitch@Settings@@QAAXXZ 0001b4e8 f   slideswitch.obj
 0001:0000a7bc       ?sizeHint@SlideSwitch@Settings@@UBA?AVQSize@@XZ 0001b7bc f   slideswitch.obj
 0001:0000a92c       ?value@SlideSwitch@Settings@@UBA?AVQVariant@@XZ 0001b92c f   slideswitch.obj
 0001:0000a954       ?setValue@SlideSwitch@Settings@@UAAXABVQVariant@@@Z 0001b954 f   slideswitch.obj
 0001:0000a9d0       ?moveEvent@SlideSwitch@Settings@@MAAXPAVQMoveEvent@@@Z 0001b9d0 f   slideswitch.obj
 0001:0000a9f0       ?mousePressEvent@SlideSwitch@Settings@@MAAXPAVQMouseEvent@@@Z 0001b9f0 f   slideswitch.obj
 0001:0000aa10       ?mouseReleaseEvent@SlideSwitch@Settings@@MAAXPAVQMouseEvent@@@Z 0001ba10 f   slideswitch.obj
 0001:0000aaa8       ?timerEvent@SlideSwitch@Settings@@MAAXPAVQTimerEvent@@@Z 0001baa8 f   slideswitch.obj
 0001:0000ac6c       ?paintEvent@SlideSwitch@Settings@@MAAXPAVQPaintEvent@@@Z 0001bc6c f   slideswitch.obj
 0001:0000ae1c       ??_ESlideSwitch@Settings@@W7AAPAXI@Z 0001be1c f i slideswitch.obj
 0001:0000ae24       ??_EPageFactory@Settings@@UAAPAXI@Z 0001be24 f i  CIL library: CIL module
 0001:0000ae24       ??_GPageFactory@Settings@@UAAPAXI@Z 0001be24 f i pagefactory.obj
 0001:0000ae58       ?create@PageFactory@Settings@@QAAPAVQWidget@@ABVQModelIndex@@@Z 0001be58 f   pagefactory.obj
 0001:0000b3e4       ??_GLoadImgThread@Settings@@UAAPAXI@Z 0001c3e4 f i wallpaperwidget.obj
 0001:0000b3e4       ??_ELoadImgThread@Settings@@UAAPAXI@Z 0001c3e4 f i  CIL library: CIL module
 0001:0000b4c8       ??0WallpaperWidget@Settings@@QAA@PAVQWidget@@@Z 0001c4c8 f   wallpaperwidget.obj
 0001:0000b578       ??_EWallpaperWidget@Settings@@UAAPAXI@Z 0001c578 f i  CIL library: CIL module
 0001:0000b578       ??_GWallpaperWidget@Settings@@UAAPAXI@Z 0001c578 f i wallpaperwidget.obj
 0001:0000b5a0       ??1WallpaperWidget@Settings@@UAA@XZ 0001c5a0 f   wallpaperwidget.obj
 0001:0000b688       ?init@WallpaperWidget@Settings@@IAAXXZ 0001c688 f   wallpaperwidget.obj
 0001:0000ba84       ?populatePictureFlow@WallpaperWidget@Settings@@QAAXXZ 0001ca84 f   wallpaperwidget.obj
 0001:0000bda4       ??_EQImage@@UAAPAXI@Z      0001cda4 f i  CIL library: CIL module
 0001:0000bda4       ??_GQImage@@UAAPAXI@Z      0001cda4 f i wallpaperwidget.obj
 0001:0000bdd8       ?OnFinishLoad@WallpaperWidget@Settings@@IAAXXZ 0001cdd8 f   wallpaperwidget.obj
 0001:0000c1f4       ?onChangeWallpaper@WallpaperWidget@Settings@@IAAXABVQString@@@Z 0001d1f4 f   wallpaperwidget.obj
 0001:0000c2f0       ?loadXml@WallpaperWidget@Settings@@IAA_NPAVQStringList@@@Z 0001d2f0 f   wallpaperwidget.obj
 0001:0000c900       ?run@LoadImgThread@Settings@@UAAXXZ 0001d900 f   wallpaperwidget.obj
 0001:0000c908       ?clear@?$QVector@PAVQImage@@@@QAAXXZ 0001d908 f i wallpaperwidget.obj
 0001:0000c9c4       ?realloc@?$QVector@PAVQImage@@@@AAAXHH@Z 0001d9c4 f i wallpaperwidget.obj
 0001:0000cb54       ??_EWallpaperWidget@Settings@@W7AAPAXI@Z 0001db54 f i wallpaperwidget.obj
 0001:0000cb5c       ??0PictureFlowPrivate@@QAA@PAVPictureFlow@@@Z 0001db5c f   pictureflow.obj
 0001:0000cd54       ?setSlideCount@PictureFlowPrivate@@QAAXH@Z 0001dd54 f   pictureflow.obj
 0001:0000cea4       ?showSlide@PictureFlowPrivate@@QAAXH@Z 0001dea4 f   pictureflow.obj
 0001:0000cf7c       ?resetSlides@PictureFlowPrivate@@AAAXXZ 0001df7c f   pictureflow.obj
 0001:0000d57c       ?surface@PictureFlowPrivate@@AAAPAVQImage@@H@Z 0001e57c f   pictureflow.obj
 0001:0000daec       ?render@PictureFlowPrivate@@QAAXXZ 0001eaec f   pictureflow.obj
 0001:0000e83c       ?renderSlide@PictureFlowPrivate@@AAA?AVQRect@@ABUSlideInfo@@HHH@Z 0001f83c f   pictureflow.obj
 0001:0000ef80       ?recalc@PictureFlowPrivate@@AAAXHH@Z 0001ff80 f   pictureflow.obj
 0001:0000f360       ?startAnimation@PictureFlowPrivate@@QAAXXZ 00020360 f   pictureflow.obj
 0001:0000f3dc       ?updateAnimation@PictureFlowPrivate@@QAAXXZ 000203dc f   pictureflow.obj
 0001:0000f9c4       ??0PictureFlow@@QAA@PAVQWidget@@@Z 000209c4 f   pictureflow.obj
 0001:0000fa84       ??_GPictureFlow@@UAAPAXI@Z 00020a84 f i pictureflow.obj
 0001:0000fa84       ??_EPictureFlow@@UAAPAXI@Z 00020a84 f i  CIL library: CIL module
 0001:0000faf0       ??1PictureFlowPrivate@@QAA@XZ 00020af0 f i pictureflow.obj
 0001:0000fcac       ?setSlideSize@PictureFlow@@QAAXVQSize@@@Z 00020cac f   pictureflow.obj
 0001:0000fd18       ?slide@PictureFlow@@UBA?AVQImage@@H@Z 00020d18 f   pictureflow.obj
 0001:0000fd54       ?setSlide@PictureFlow@@UAAXHABVQImage@@@Z 00020d54 f   pictureflow.obj
 0001:0000fe00       ?setSlide@PictureFlow@@UAAXHABVQPixmap@@@Z 00020e00 f   pictureflow.obj
 0001:0000fee0       ?setSlideCaption@PictureFlow@@UAAXHVQString@@@Z 00020ee0 f   pictureflow.obj
 0001:0000ff54       ?setCurrentSlide@PictureFlow@@QAAXH@Z 00020f54 f   pictureflow.obj
 0001:0000ffd0       ?showPrevious@PictureFlow@@QAAXXZ 00020fd0 f   pictureflow.obj
 0001:00010050       ?showNext@PictureFlow@@QAAXXZ 00021050 f   pictureflow.obj
 0001:000100d8       ?keyPressEvent@PictureFlow@@MAAXPAVQKeyEvent@@@Z 000210d8 f   pictureflow.obj
 0001:00010264       ?mouseMoveEvent@PictureFlow@@MAAXPAVQMouseEvent@@@Z 00021264 f   pictureflow.obj
 0001:0001045c       ?mousePressEvent@PictureFlow@@MAAXPAVQMouseEvent@@@Z 0002145c f   pictureflow.obj
 0001:000104ec       ?mouseReleaseEvent@PictureFlow@@MAAXPAVQMouseEvent@@@Z 000214ec f   pictureflow.obj
 0001:0001064c       ?paintEvent@PictureFlow@@MAAXPAVQPaintEvent@@@Z 0002164c f   pictureflow.obj
 0001:000106d8       ?resizeEvent@PictureFlow@@MAAXPAVQResizeEvent@@@Z 000216d8 f   pictureflow.obj
 0001:0001074c       ?timerEvent@PictureFlow@@MAAXPAVQTimerEvent@@@Z 0002174c f   pictureflow.obj
 0001:00010784       ??1?$QCache@HVQImage@@@@QAA@XZ 00021784 f i pictureflow.obj
 0001:00010820       ?free@?$QVector@VQImage@@@@AAAXPAU?$QVectorTypedData@VQImage@@@@@Z 00021820 f i pictureflow.obj
 0001:0001087c       ?clear@?$QVector@USlideInfo@@@@QAAXXZ 0002187c f i pictureflow.obj
 0001:00010938       ?insert@?$QCache@HVQImage@@@@QAA_NABHPAVQImage@@H@Z 00021938 f i pictureflow.obj
 0001:00010a10       ?remove@?$QCache@HVQImage@@@@QAA_NABH@Z 00021a10 f i pictureflow.obj
 0001:00010ae0       ?realloc@?$QVector@VQString@@@@AAAXHH@Z 00021ae0 f i pictureflow.obj
 0001:00010d4c       ?realloc@?$QVector@VQImage@@@@AAAXHH@Z 00021d4c f i pictureflow.obj
 0001:00010fbc       ?realloc@?$QVector@USlideInfo@@@@AAAXHH@Z 00021fbc f i pictureflow.obj
 0001:0001117c       ?realloc@?$QVector@J@@AAAXHH@Z 0002217c f i pictureflow.obj
 0001:0001130c       ?trim@?$QCache@HVQImage@@@@AAAXH@Z 0002230c f i pictureflow.obj
 0001:000113dc       ?clear@?$QHash@HUNode@?$QCache@HVQImage@@@@@@QAAXXZ 000223dc f i pictureflow.obj
 0001:000114a0       ?remove@?$QHash@HUNode@?$QCache@HVQImage@@@@@@QAAHABH@Z 000224a0 f i pictureflow.obj
 0001:000115c8       ?find@?$QHash@HUNode@?$QCache@HVQImage@@@@@@QAA?AViterator@1@ABH@Z 000225c8 f i pictureflow.obj
 0001:000116f8       ?insert@?$QHash@HUNode@?$QCache@HVQImage@@@@@@QAA?AViterator@1@ABHABUNode@?$QCache@HVQImage@@@@@Z 000226f8 f i pictureflow.obj
 0001:000118ac       ?findNode@?$QHash@HUNode@?$QCache@HVQImage@@@@@@ABAPAPAU?$QHashNode@HUNode@?$QCache@HVQImage@@@@@@ABHPAI@Z 000228ac f i pictureflow.obj
 0001:00011940       ?deleteNode2@?$QHash@HUNode@?$QCache@HVQImage@@@@@@CAXPAUNode@QHashData@@@Z 00022940 f i pictureflow.obj
 0001:00011944       ?relink@?$QCache@HVQImage@@@@AAAPAVQImage@@ABH@Z 00022944 f i pictureflow.obj
 0001:000119f0       ?detach@?$QHash@HUNode@?$QCache@HVQImage@@@@@@QAAXXZ 000229f0 f i pictureflow.obj
 0001:00011a90       ?detach_helper@?$QHash@HUNode@?$QCache@HVQImage@@@@@@AAAXXZ 00022a90 f i pictureflow.obj
 0001:00011b18       ?duplicateNode@?$QHash@HUNode@?$QCache@HVQImage@@@@@@CAXPAUNode@QHashData@@PAX@Z 00022b18 f i pictureflow.obj
 0001:00011b4c       ??_EPictureFlow@@W7AAPAXI@Z 00022b4c f i pictureflow.obj
 0001:00011b54       ??1Icon@common@@QAA@XZ     00022b54 f i datetimewidget.obj
 0001:00011b9c       ??_EFormatSwitch@Settings@@UAAPAXI@Z 00022b9c f i  CIL library: CIL module
 0001:00011b9c       ??_GFormatSwitch@Settings@@UAAPAXI@Z 00022b9c f i datetimewidget.obj
 0001:00011bd0       ?init@FormatSwitch@Settings@@QAAXXZ 00022bd0 f   datetimewidget.obj
 0001:00011da4       ?sizeHint@FormatSwitch@Settings@@UBA?AVQSize@@XZ 00022da4 f   datetimewidget.obj
 0001:00011e68       ?mouseReleaseEvent@FormatSwitch@Settings@@MAAXPAVQMouseEvent@@@Z 00022e68 f   datetimewidget.obj
 0001:00011ec4       ?timerEvent@FormatSwitch@Settings@@MAAXPAVQTimerEvent@@@Z 00022ec4 f   datetimewidget.obj
 0001:00012028       ?paintEvent@FormatSwitch@Settings@@MAAXPAVQPaintEvent@@@Z 00023028 f   datetimewidget.obj
 0001:00012184       ??_EDatetimeWidget@Settings@@UAAPAXI@Z 00023184 f i  CIL library: CIL module
 0001:00012184       ??_GDatetimeWidget@Settings@@UAAPAXI@Z 00023184 f i datetimewidget.obj
 0001:000121d0       ?init@DatetimeWidget@Settings@@IAAXXZ 000231d0 f   datetimewidget.obj
 0001:000131d0       ?onIncYear@DatetimeWidget@Settings@@IAAXXZ 000241d0 f   datetimewidget.obj
 0001:000132ec       ?onDecYear@DatetimeWidget@Settings@@IAAXXZ 000242ec f   datetimewidget.obj
 0001:00013408       ?onIncMonth@DatetimeWidget@Settings@@IAAXXZ 00024408 f   datetimewidget.obj
 0001:00013564       ?onDecMonth@DatetimeWidget@Settings@@IAAXXZ 00024564 f   datetimewidget.obj
 0001:000136c0       ?onIncDay@DatetimeWidget@Settings@@IAAXXZ 000246c0 f   datetimewidget.obj
 0001:0001386c       ?onDecDay@DatetimeWidget@Settings@@IAAXXZ 0002486c f   datetimewidget.obj
 0001:000139f4       ?onIncHour@DatetimeWidget@Settings@@IAAXXZ 000249f4 f   datetimewidget.obj
 0001:00013b54       ?onDecHour@DatetimeWidget@Settings@@IAAXXZ 00024b54 f   datetimewidget.obj
 0001:00013cb8       ?onIncMinute@DatetimeWidget@Settings@@IAAXXZ 00024cb8 f   datetimewidget.obj
 0001:00013e18       ?onDecMinute@DatetimeWidget@Settings@@IAAXXZ 00024e18 f   datetimewidget.obj
 0001:00013f78       ?onTimeFormatChanged@DatetimeWidget@Settings@@IAAX_N@Z 00024f78 f   datetimewidget.obj
 0001:00014114       ?onSave@DatetimeWidget@Settings@@IAAXXZ 00025114 f   datetimewidget.obj
 0001:000142a4       ?timerEvent@DatetimeWidget@Settings@@MAAXPAVQTimerEvent@@@Z 000252a4 f   datetimewidget.obj
 0001:000142bc       ?showEvent@DatetimeWidget@Settings@@MAAXPAVQShowEvent@@@Z 000252bc f   datetimewidget.obj
 0001:000142ec       ?hideEvent@DatetimeWidget@Settings@@MAAXPAVQHideEvent@@@Z 000252ec f   datetimewidget.obj
 0001:00014314       ?paintEvent@DatetimeWidget@Settings@@MAAXPAVQPaintEvent@@@Z 00025314 f   datetimewidget.obj
 0001:00014f38       ?deleteNode2@?$QHash@W4Mode@Icon@common@@VQString@@@@CAXPAUNode@QHashData@@@Z 00025f38 f i datetimewidget.obj
 0001:00014f54       ??_EDatetimeWidget@Settings@@W7AAPAXI@Z 00025f54 f i datetimewidget.obj
 0001:00014f5c       ??_EFormatSwitch@Settings@@W7AAPAXI@Z 00025f5c f i datetimewidget.obj
 0001:00014f64       ??0Button@?A0xd69e84ac@@QAA@PAVQWidget@@@Z 00025f64 f i comfirmbox.obj
 0001:0001509c       ?paintEvent@Button@?A0xd69e84ac@@MAAXPAVQPaintEvent@@@Z 0002609c f i comfirmbox.obj
 0001:00015318       ??_GButton@?A0xd69e84ac@@UAAPAXI@Z 00026318 f i comfirmbox.obj
 0001:00015318       ??_EButton@?A0xd69e84ac@@UAAPAXI@Z 00026318 f i  CIL library: CIL module
 0001:0001534c       ??_EComfirmBox@Settings@@UAAPAXI@Z 0002634c f i  CIL library: CIL module
 0001:0001534c       ??_GComfirmBox@Settings@@UAAPAXI@Z 0002634c f i comfirmbox.obj
 0001:000153a8       ?init@ComfirmBox@Settings@@IAAXXZ 000263a8 f   comfirmbox.obj
 0001:000157ac       ?paintEvent@ComfirmBox@Settings@@MAAXPAVQPaintEvent@@@Z 000267ac f   comfirmbox.obj
 0001:00015930       ??_EComfirmBox@Settings@@W7AAPAXI@Z 00026930 f i comfirmbox.obj
 0001:00015938       ??_EButton@?A0xd69e84ac@@W7AAPAXI@Z 00026938 f i comfirmbox.obj
 0001:00015940       ??_EResetWidget@Settings@@UAAPAXI@Z 00026940 f i  CIL library: CIL module
 0001:00015940       ??_GResetWidget@Settings@@UAAPAXI@Z 00026940 f i resetwidget.obj
 0001:00015974       ?init@ResetWidget@Settings@@IAAXXZ 00026974 f   resetwidget.obj
 0001:00015b4c       ?onAccept@ResetWidget@Settings@@IAAXXZ 00026b4c f   resetwidget.obj
 0001:00015c38       ??_EResetWidget@Settings@@W7AAPAXI@Z 00026c38 f i resetwidget.obj
 0001:00015c40       ??_ECalibraWidget@Settings@@UAAPAXI@Z 00026c40 f i  CIL library: CIL module
 0001:00015c40       ??_GCalibraWidget@Settings@@UAAPAXI@Z 00026c40 f i calibrawidget.obj
 0001:00015c74       ?init@CalibraWidget@Settings@@IAAXXZ 00026c74 f   calibrawidget.obj
 0001:00015e3c       ?onAccept@CalibraWidget@Settings@@IAAXXZ 00026e3c f   calibrawidget.obj
 0001:00015eec       ??_ECalibraWidget@Settings@@W7AAPAXI@Z 00026eec f i calibrawidget.obj
 0001:00015ef4       ??0WheelKeyWidget@Settings@@QAA@PAVQWidget@@@Z 00026ef4 f   wheelkeywidget.obj
 0001:00015fbc       ??_GWheelKeyWidget@Settings@@UAAPAXI@Z 00026fbc f i wheelkeywidget.obj
 0001:00015fbc       ??_EWheelKeyWidget@Settings@@UAAPAXI@Z 00026fbc f i  CIL library: CIL module
 0001:0001605c       ?init@WheelKeyWidget@Settings@@IAAXXZ 0002705c f   wheelkeywidget.obj
 0001:00016620       ?buildKeymap@WheelKeyWidget@Settings@@IAAXXZ 00027620 f   wheelkeywidget.obj
 0001:0001789c       ?setModel@WheelKeyWidget@Settings@@QAAXPAVQAbstractItemModel@@@Z 0002889c f   wheelkeywidget.obj
 0001:000179d8       ?paintEvent@WheelKeyWidget@Settings@@MAAXPAVQPaintEvent@@@Z 000289d8 f   wheelkeywidget.obj
 0001:00017dd8       ?changeEvent@WheelKeyWidget@Settings@@MAAXPAVQEvent@@@Z 00028dd8 f   wheelkeywidget.obj
 0001:00017e08       ?retranslateUi@WheelKeyWidget@Settings@@IAAXXZ 00028e08 f   wheelkeywidget.obj
 0001:00017f64       ?handleMsg@WheelKeyWidget@Settings@@QAA_NPAUtagMSG@@@Z 00028f64 f   wheelkeywidget.obj
 0001:00018224       ?onStart@WheelKeyWidget@Settings@@IAAXXZ 00029224 f   wheelkeywidget.obj
 0001:000182ec       ?onFinish@WheelKeyWidget@Settings@@IAAXXZ 000292ec f   wheelkeywidget.obj
 0001:00018478       ?onSelected@WheelKeyWidget@Settings@@IAAXABVQModelIndex@@@Z 00029478 f   wheelkeywidget.obj
 0001:00018598       ?insert@?$QHash@VQString@@W4KEY@@@@QAA?AViterator@1@ABVQString@@ABW4KEY@@@Z 00029598 f i wheelkeywidget.obj
 0001:00018724       ?findNode@?$QHash@VQString@@W4KEY@@@@ABAPAPAU?$QHashNode@VQString@@W4KEY@@@@ABVQString@@PAI@Z 00029724 f i wheelkeywidget.obj
 0001:000187e8       ?deleteNode2@?$QHash@VQString@@W4KEY@@@@CAXPAUNode@QHashData@@@Z 000297e8 f i wheelkeywidget.obj
 0001:00018804       ?duplicateNode@?$QHash@VQString@@W4KEY@@@@CAXPAUNode@QHashData@@PAX@Z 00029804 f i wheelkeywidget.obj
 0001:00018838       ??_EWheelKeyWidget@Settings@@W7AAPAXI@Z 00029838 f i wheelkeywidget.obj
 0001:00018840       ?init@translation@Settings@@YAXXZ 00029840 f   translation.obj
 0001:0001a00c       ?translate@translation@Settings@@YA?AVQString@@ABV3@@Z 0002b00c f   translation.obj
 0001:0001a124       ?insert@?$QHash@VQString@@V1@@@QAA?AViterator@1@ABVQString@@0@Z 0002b124 f i translation.obj
 0001:0001a1ec       ?detach@?$QHash@VQString@@V1@@@QAAXXZ 0002b1ec f i translation.obj
 0001:0001a290       ?findNode@?$QHash@VQString@@V1@@@ABAPAPAU?$QHashNode@VQString@@V1@@@ABVQString@@PAI@Z 0002b290 f i translation.obj
 0001:0001a358       ?createNode@?$QHash@VQString@@V1@@@AAAPAU?$QHashNode@VQString@@V1@@@IABVQString@@0PAPAU2@@Z 0002b358 f i translation.obj
 0001:0001a3f8       ?deleteNode2@?$QHash@VQString@@V1@@@CAXPAUNode@QHashData@@@Z 0002b3f8 f i translation.obj
 0001:0001a428       ?duplicateNode@?$QHash@VQString@@V1@@@CAXPAUNode@QHashData@@PAX@Z 0002b428 f i translation.obj
 0001:0001a480       ?scrollStop@Flickable@Settings@@MAAXXZ 0002b480 f i flickable.obj
 0001:0001a4a0       ?timerEvent@FlickableTicker@Settings@@MAAXPAVQTimerEvent@@@Z 0002b4a0 f i flickable.obj
 0001:0001a4a8       ??_EFlickableTicker@Settings@@UAAPAXI@Z 0002b4a8 f i  CIL library: CIL module
 0001:0001a4a8       ??_GFlickableTicker@Settings@@UAAPAXI@Z 0002b4a8 f i flickable.obj
 0001:0001a4fc       ??0Flickable@Settings@@QAA@XZ 0002b4fc f   flickable.obj
 0001:0001a63c       ??_GFlickable@Settings@@UAAPAXI@Z 0002b63c f i flickable.obj
 0001:0001a63c       ??_EFlickable@Settings@@UAAPAXI@Z 0002b63c f i  CIL library: CIL module
 0001:0001a808       ?handleMousePress@Flickable@Settings@@QAAXPAVQMouseEvent@@@Z 0002b808 f   flickable.obj
 0001:0001a944       ?handleMouseRelease@Flickable@Settings@@QAAXPAVQMouseEvent@@@Z 0002b944 f   flickable.obj
 0001:0001acb4       ??_GQMouseEvent@@UAAPAXI@Z 0002bcb4 f i flickable.obj
 0001:0001acb4       ??_EQMouseEvent@@UAAPAXI@Z 0002bcb4 f i  CIL library: CIL module
 0001:0001ace8       ?handleMouseMove@Flickable@Settings@@QAAXPAVQMouseEvent@@@Z 0002bce8 f   flickable.obj
 0001:0001af04       ?tick@Flickable@Settings@@AAAXXZ 0002bf04 f   flickable.obj
 0001:0001b028       ??6?$QList@PAVQEvent@@@@QAAAAV0@ABQAVQEvent@@@Z 0002c028 f i flickable.obj
 0001:0001b078       ?removeAll@?$QList@PAVQEvent@@@@QAAHABQAVQEvent@@@Z 0002c078 f i flickable.obj
 0001:0001b130       ?detach_helper@?$QList@PAVQEvent@@@@AAAXXZ 0002c130 f i flickable.obj
 0001:0001b1ec       ?index@QEmptyListModel@Settings@@UBA?AVQModelIndex@@HHABV3@@Z 0002c1ec f i keyview.obj
 0001:0001b20c       ?parent@QEmptyListModel@Settings@@UBA?AVQModelIndex@@ABV3@@Z 0002c20c f i keyview.obj
 0001:0001b240       ?rowCount@QEmptyListModel@Settings@@UBAHABVQModelIndex@@@Z 0002c240 f i keyview.obj
 0001:0001b260       ?columnCount@QEmptyListModel@Settings@@UBAHABVQModelIndex@@@Z 0002c260 f i keyview.obj
 0001:0001b280       ?hasChildren@QEmptyListModel@Settings@@UBA_NABVQModelIndex@@@Z 0002c280 f i keyview.obj
 0001:0001b288       ?data@QEmptyListModel@Settings@@UBA?AVQVariant@@ABVQModelIndex@@H@Z 0002c288 f i keyview.obj
 0001:0001b2ac       ??_EQEmptyListModel@Settings@@UAAPAXI@Z 0002c2ac f i  CIL library: CIL module
 0001:0001b2ac       ??_GQEmptyListModel@Settings@@UAAPAXI@Z 0002c2ac f i keyview.obj
 0001:0001b3d0       ??0KeyView@Settings@@QAA@PAVQWidget@@@Z 0002c3d0 f   keyview.obj
 0001:0001b4e4       ??_EKeyView@Settings@@UAAPAXI@Z 0002c4e4 f i  CIL library: CIL module
 0001:0001b4e4       ??_GKeyView@Settings@@UAAPAXI@Z 0002c4e4 f i keyview.obj
 0001:0001b50c       ??1KeyView@Settings@@UAA@XZ 0002c50c f i keyview.obj
 0001:0001b614       ?init@KeyView@Settings@@QAAXXZ 0002c614 f   keyview.obj
 0001:0001b7bc       ?scrollOffset@KeyView@Settings@@MBA?AVQPoint@@XZ 0002c7bc f   keyview.obj
 0001:0001b7d0       ?setScrollOffset@KeyView@Settings@@MAAXABVQPoint@@@Z 0002c7d0 f   keyview.obj
 0001:0001b894       ?setModel@KeyView@Settings@@QAAXPAVQAbstractItemModel@@@Z 0002c894 f   keyview.obj
 0001:0001baa4       ?mousePressEvent@KeyView@Settings@@MAAXPAVQMouseEvent@@@Z 0002caa4 f   keyview.obj
 0001:0001bbf4       ?mouseMoveEvent@KeyView@Settings@@MAAXPAVQMouseEvent@@@Z 0002cbf4 f   keyview.obj
 0001:0001bc4c       ?mouseReleaseEvent@KeyView@Settings@@MAAXPAVQMouseEvent@@@Z 0002cc4c f   keyview.obj
 0001:0001bdd4       ?render@KeyView@Settings@@IAAXXZ 0002cdd4 f   keyview.obj
 0001:0001c47c       ?paintEvent@KeyView@Settings@@MAAXPAVQPaintEvent@@@Z 0002d47c f   keyview.obj
 0001:0001c544       ?reset@KeyView@Settings@@QAAXXZ 0002d544 f   keyview.obj
 0001:0001c5e0       ?dataChanged@KeyView@Settings@@IAAXABVQModelIndex@@0@Z 0002d5e0 f   keyview.obj
 0001:0001c704       ?resizeEvent@KeyView@Settings@@MAAXPAVQResizeEvent@@@Z 0002d704 f   keyview.obj
 0001:0001c85c       ?changeEvent@KeyView@Settings@@MAAXPAVQEvent@@@Z 0002d85c f   keyview.obj
 0001:0001c890       ??_EKeyView@Settings@@W7AAPAXI@Z 0002d890 f i keyview.obj
 0001:0001c898       ??_EKeyView@Settings@@WBE@AAPAXI@Z 0002d898 f i keyview.obj
 0001:0001c8a0       ??_EArthurStyle@Settings@@UAAPAXI@Z 0002d8a0 f i  CIL library: CIL module
 0001:0001c8a0       ??_GArthurStyle@Settings@@UAAPAXI@Z 0002d8a0 f i slider.obj
 0001:0001c8d4       ?drawComplexControl@ArthurStyle@Settings@@UBAXW4ComplexControl@QStyle@@PBVQStyleOptionComplex@@PAVQPainter@@PBVQWidget@@@Z 0002d8d4 f   slider.obj
 0001:0001cb7c       ?subControlRect@ArthurStyle@Settings@@UBA?AVQRect@@W4ComplexControl@QStyle@@PBVQStyleOptionComplex@@W4SubControl@5@PBVQWidget@@@Z 0002db7c f   slider.obj
 0001:0001cc08       ?sizeFromContents@ArthurStyle@Settings@@UBA?AVQSize@@W4ContentsType@QStyle@@PBVQStyleOption@@ABV3@PBVQWidget@@@Z 0002dc08 f   slider.obj
 0001:0001cc54       ?pixelMetric@ArthurStyle@Settings@@UBAHW4PixelMetric@QStyle@@PBVQStyleOption@@PBVQWidget@@@Z 0002dc54 f   slider.obj
 0001:0001cc84       ??0SliderWidget@Settings@@QAA@PAVQWidget@@@Z 0002dc84 f   slider.obj
 0001:0001d06c       ??_GSliderWidget@Settings@@UAAPAXI@Z 0002e06c f i slider.obj
 0001:0001d06c       ??_ESliderWidget@Settings@@UAAPAXI@Z 0002e06c f i  CIL library: CIL module
 0001:0001d0dc       ??_EQSlider@@UAAPAXI@Z     0002e0dc f i  CIL library: CIL module
 0001:0001d0dc       ??_GQSlider@@UAAPAXI@Z     0002e0dc f i slider.obj
 0001:0001d110       ??_GQLabel@@UAAPAXI@Z      0002e110 f i slider.obj
 0001:0001d110       ??_EQLabel@@UAAPAXI@Z      0002e110 f i  CIL library: CIL module
 0001:0001d144       ?setValue@SliderWidget@Settings@@UAAXABVQVariant@@@Z 0002e144 f   slider.obj
 0001:0001d1d8       ?value@SliderWidget@Settings@@UBA?AVQVariant@@XZ 0002e1d8 f   slider.obj
 0001:0001d214       ?sizeHint@SliderWidget@Settings@@UBA?AVQSize@@XZ 0002e214 f   slider.obj
 0001:0001d24c       ??_EQSlider@@W7AAPAXI@Z    0002e24c f i slider.obj
 0001:0001d254       ??_ESliderWidget@Settings@@W7AAPAXI@Z 0002e254 f i slider.obj
 0001:0001d25c       ??_EQLabel@@W7AAPAXI@Z     0002e25c f i slider.obj
 0001:0001d264       ??0VSpinBox@Settings@@QAA@PAVQWidget@@@Z 0002e264 f   numberpicker.obj
 0001:0001d854       ??_GVSpinBox@Settings@@UAAPAXI@Z 0002e854 f i numberpicker.obj
 0001:0001d854       ??_EVSpinBox@Settings@@UAAPAXI@Z 0002e854 f i  CIL library: CIL module
 0001:0001d890       ?paintEvent@VSpinBox@Settings@@MAAXPAVQPaintEvent@@@Z 0002e890 f   numberpicker.obj
 0001:0001da10       ??0NumberPicker@Settings@@QAA@PAVQWidget@@@Z 0002ea10 f   numberpicker.obj
 0001:0001e394       ??_GNumberPicker@Settings@@UAAPAXI@Z 0002f394 f i numberpicker.obj
 0001:0001e394       ??_ENumberPicker@Settings@@UAAPAXI@Z 0002f394 f i  CIL library: CIL module
 0001:0001e3c8       ?sizeHint@NumberPicker@Settings@@UBA?AVQSize@@XZ 0002f3c8 f   numberpicker.obj
 0001:0001e400       ?value@NumberPicker@Settings@@UBA?AVQVariant@@XZ 0002f400 f   numberpicker.obj
 0001:0001e484       ?setValue@NumberPicker@Settings@@UAAXABVQVariant@@@Z 0002f484 f   numberpicker.obj
 0001:0001e520       ?mousePressEvent@NumberPicker@Settings@@MAAXPAVQMouseEvent@@@Z 0002f520 f   numberpicker.obj
 0001:0001e540       ?mouseMoveEvent@NumberPicker@Settings@@MAAXPAVQMouseEvent@@@Z 0002f540 f   numberpicker.obj
 0001:0001e560       ?mouseReleaseEvent@NumberPicker@Settings@@MAAXPAVQMouseEvent@@@Z 0002f560 f   numberpicker.obj
 0001:0001e570       ??_EVSpinBox@Settings@@W7AAPAXI@Z 0002f570 f i numberpicker.obj
 0001:0001e578       ??_ENumberPicker@Settings@@W7AAPAXI@Z 0002f578 f i numberpicker.obj
 0001:0001e580       ?metaObject@ListView@Settings@@UBAPBUQMetaObject@@XZ 0002f580 f   moc_listview.obj
 0001:0001e59c       ?qt_metacast@ListView@Settings@@UAAPAXPBD@Z 0002f59c f   moc_listview.obj
 0001:0001e5e4       ?qt_metacall@ListView@Settings@@UAAHW4Call@QMetaObject@@HPAPAX@Z 0002f5e4 f   moc_listview.obj
 0001:0001e6e0       ?selected@ListView@Settings@@IAAXABVQModelIndex@@@Z 0002f6e0 f   moc_listview.obj
 0001:0001e724       ?metaObject@Window@Settings@@UBAPBUQMetaObject@@XZ 0002f724 f   moc_window.obj
 0001:0001e740       ?qt_metacast@Window@Settings@@UAAPAXPBD@Z 0002f740 f   moc_window.obj
 0001:0001e7a8       ?qt_metacall@Window@Settings@@UAAHW4Call@QMetaObject@@HPAPAX@Z 0002f7a8 f   moc_window.obj
 0001:0001e928       ?metaObject@SettingModel@Settings@@UBAPBUQMetaObject@@XZ 0002f928 f   moc_settingmodel.obj
 0001:0001e944       ?qt_metacast@SettingModel@Settings@@UAAPAXPBD@Z 0002f944 f   moc_settingmodel.obj
 0001:0001e98c       ?qt_metacall@SettingModel@Settings@@UAAHW4Call@QMetaObject@@HPAPAX@Z 0002f98c f   moc_settingmodel.obj
 0001:0001e9a8       ?metaObject@WalkModel@Settings@@UBAPBUQMetaObject@@XZ 0002f9a8 f   moc_settingmodel.obj
 0001:0001e9c4       ?qt_metacast@WalkModel@Settings@@UAAPAXPBD@Z 0002f9c4 f   moc_settingmodel.obj
 0001:0001ea0c       ?qt_metacall@WalkModel@Settings@@UAAHW4Call@QMetaObject@@HPAPAX@Z 0002fa0c f   moc_settingmodel.obj
 0001:0001ea28       ?metaObject@VersionModel@Settings@@UBAPBUQMetaObject@@XZ 0002fa28 f   moc_settingmodel.obj
 0001:0001ea44       ?qt_metacast@VersionModel@Settings@@UAAPAXPBD@Z 0002fa44 f   moc_settingmodel.obj
 0001:0001ea8c       ?qt_metacall@VersionModel@Settings@@UAAHW4Call@QMetaObject@@HPAPAX@Z 0002fa8c f   moc_settingmodel.obj
 0001:0001eaa8       ?metaObject@FindNaviThread@Settings@@UBAPBUQMetaObject@@XZ 0002faa8 f   moc_settingmodel.obj
 0001:0001eac4       ?qt_metacast@FindNaviThread@Settings@@UAAPAXPBD@Z 0002fac4 f   moc_settingmodel.obj
 0001:0001eb0c       ?qt_metacall@FindNaviThread@Settings@@UAAHW4Call@QMetaObject@@HPAPAX@Z 0002fb0c f   moc_settingmodel.obj
 0001:0001eb28       ?metaObject@NaviPathModel@Settings@@UBAPBUQMetaObject@@XZ 0002fb28 f   moc_settingmodel.obj
 0001:0001eb44       ?qt_metacast@NaviPathModel@Settings@@UAAPAXPBD@Z 0002fb44 f   moc_settingmodel.obj
 0001:0001eb8c       ?qt_metacall@NaviPathModel@Settings@@UAAHW4Call@QMetaObject@@HPAPAX@Z 0002fb8c f   moc_settingmodel.obj
 0001:0001ebd4       ?metaObject@SlideSwitch@Settings@@UBAPBUQMetaObject@@XZ 0002fbd4 f   moc_slideswitch.obj
 0001:0001ebf0       ?qt_metacast@SlideSwitch@Settings@@UAAPAXPBD@Z 0002fbf0 f   moc_slideswitch.obj
 0001:0001ec58       ?qt_metacall@SlideSwitch@Settings@@UAAHW4Call@QMetaObject@@HPAPAX@Z 0002fc58 f   moc_slideswitch.obj
 0001:0001ed18       ?metaObject@PageFactory@Settings@@UBAPBUQMetaObject@@XZ 0002fd18 f   moc_pagefactory.obj
 0001:0001ed34       ?qt_metacast@PageFactory@Settings@@UAAPAXPBD@Z 0002fd34 f   moc_pagefactory.obj
 0001:0001ed7c       ?qt_metacall@PageFactory@Settings@@UAAHW4Call@QMetaObject@@HPAPAX@Z 0002fd7c f   moc_pagefactory.obj
 0001:0001ed98       ?metaObject@WallpaperWidget@Settings@@UBAPBUQMetaObject@@XZ 0002fd98 f   moc_wallpaperwidget.obj
 0001:0001edb4       ?qt_metacast@WallpaperWidget@Settings@@UAAPAXPBD@Z 0002fdb4 f   moc_wallpaperwidget.obj
 0001:0001edfc       ?qt_metacall@WallpaperWidget@Settings@@UAAHW4Call@QMetaObject@@HPAPAX@Z 0002fdfc f   moc_wallpaperwidget.obj
 0001:0001ee6c       ?metaObject@LoadImgThread@Settings@@UBAPBUQMetaObject@@XZ 0002fe6c f   moc_wallpaperwidget.obj
 0001:0001ee88       ?qt_metacast@LoadImgThread@Settings@@UAAPAXPBD@Z 0002fe88 f   moc_wallpaperwidget.obj
 0001:0001eed0       ?qt_metacall@LoadImgThread@Settings@@UAAHW4Call@QMetaObject@@HPAPAX@Z 0002fed0 f   moc_wallpaperwidget.obj
 0001:0001eeec       ?metaObject@PictureFlow@@UBAPBUQMetaObject@@XZ 0002feec f   moc_pictureflow.obj
 0001:0001ef08       ?qt_metacast@PictureFlow@@UAAPAXPBD@Z 0002ff08 f   moc_pictureflow.obj
 0001:0001ef50       ?qt_metacall@PictureFlow@@UAAHW4Call@QMetaObject@@HPAPAX@Z 0002ff50 f   moc_pictureflow.obj
 0001:0001f258       ?itemActivated@PictureFlow@@IAAXH@Z 00030258 f   moc_pictureflow.obj
 0001:0001f2a4       ?selected@PictureFlow@@IAAXABVQString@@@Z 000302a4 f   moc_pictureflow.obj
 0001:0001f2e8       ?metaObject@FormatSwitch@Settings@@UBAPBUQMetaObject@@XZ 000302e8 f   moc_datetimewidget.obj
 0001:0001f304       ?qt_metacast@FormatSwitch@Settings@@UAAPAXPBD@Z 00030304 f   moc_datetimewidget.obj
 0001:0001f34c       ?qt_metacall@FormatSwitch@Settings@@UAAHW4Call@QMetaObject@@HPAPAX@Z 0003034c f   moc_datetimewidget.obj
 0001:0001f3e0       ?metaObject@DatetimeWidget@Settings@@UBAPBUQMetaObject@@XZ 000303e0 f   moc_datetimewidget.obj
 0001:0001f3fc       ?qt_metacast@DatetimeWidget@Settings@@UAAPAXPBD@Z 000303fc f   moc_datetimewidget.obj
 0001:0001f444       ?qt_metacall@DatetimeWidget@Settings@@UAAHW4Call@QMetaObject@@HPAPAX@Z 00030444 f   moc_datetimewidget.obj
 0001:0001f590       ?metaObject@ComfirmBox@Settings@@UBAPBUQMetaObject@@XZ 00030590 f   moc_comfirmbox.obj
 0001:0001f5ac       ?qt_metacast@ComfirmBox@Settings@@UAAPAXPBD@Z 000305ac f   moc_comfirmbox.obj
 0001:0001f5f4       ?qt_metacall@ComfirmBox@Settings@@UAAHW4Call@QMetaObject@@HPAPAX@Z 000305f4 f   moc_comfirmbox.obj
 0001:0001f694       ?metaObject@ResetWidget@Settings@@UBAPBUQMetaObject@@XZ 00030694 f   moc_resetwidget.obj
 0001:0001f6b0       ?qt_metacast@ResetWidget@Settings@@UAAPAXPBD@Z 000306b0 f   moc_resetwidget.obj
 0001:0001f6f8       ?qt_metacall@ResetWidget@Settings@@UAAHW4Call@QMetaObject@@HPAPAX@Z 000306f8 f   moc_resetwidget.obj
 0001:0001f7c8       ?metaObject@CalibraWidget@Settings@@UBAPBUQMetaObject@@XZ 000307c8 f   moc_calibrawidget.obj
 0001:0001f7e4       ?qt_metacast@CalibraWidget@Settings@@UAAPAXPBD@Z 000307e4 f   moc_calibrawidget.obj
 0001:0001f82c       ?qt_metacall@CalibraWidget@Settings@@UAAHW4Call@QMetaObject@@HPAPAX@Z 0003082c f   moc_calibrawidget.obj
 0001:0001f8fc       ?metaObject@WheelKeyWidget@Settings@@UBAPBUQMetaObject@@XZ 000308fc f   moc_wheelkeywidget.obj
 0001:0001f918       ?qt_metacast@WheelKeyWidget@Settings@@UAAPAXPBD@Z 00030918 f   moc_wheelkeywidget.obj
 0001:0001f960       ?qt_metacall@WheelKeyWidget@Settings@@UAAHW4Call@QMetaObject@@HPAPAX@Z 00030960 f   moc_wheelkeywidget.obj
 0001:0001fa00       ?metaObject@KeyView@Settings@@UBAPBUQMetaObject@@XZ 00030a00 f   moc_keyview.obj
 0001:0001fa1c       ?qt_metacast@KeyView@Settings@@UAAPAXPBD@Z 00030a1c f   moc_keyview.obj
 0001:0001fa94       ?qt_metacall@KeyView@Settings@@UAAHW4Call@QMetaObject@@HPAPAX@Z 00030a94 f   moc_keyview.obj
 0001:0001fb68       ?selected@KeyView@Settings@@IAAXABVQModelIndex@@@Z 00030b68 f   moc_keyview.obj
 0001:0001fbac       ?metaObject@SliderWidget@Settings@@UBAPBUQMetaObject@@XZ 00030bac f   moc_slider.obj
 0001:0001fbc8       ?qt_metacast@SliderWidget@Settings@@UAAPAXPBD@Z 00030bc8 f   moc_slider.obj
 0001:0001fc30       ?qt_metacall@SliderWidget@Settings@@UAAHW4Call@QMetaObject@@HPAPAX@Z 00030c30 f   moc_slider.obj
 0001:0001fdd4       ?metaObject@VSpinBox@Settings@@UBAPBUQMetaObject@@XZ 00030dd4 f   moc_numberpicker.obj
 0001:0001fdf0       ?qt_metacast@VSpinBox@Settings@@UAAPAXPBD@Z 00030df0 f   moc_numberpicker.obj
 0001:0001fe38       ?qt_metacall@VSpinBox@Settings@@UAAHW4Call@QMetaObject@@HPAPAX@Z 00030e38 f   moc_numberpicker.obj
 0001:0001fefc       ?metaObject@NumberPicker@Settings@@UBAPBUQMetaObject@@XZ 00030efc f   moc_numberpicker.obj
 0001:0001ff18       ?qt_metacast@NumberPicker@Settings@@UAAPAXPBD@Z 00030f18 f   moc_numberpicker.obj
 0001:0001ff80       ?qt_metacall@NumberPicker@Settings@@UAAHW4Call@QMetaObject@@HPAPAX@Z 00030f80 f   moc_numberpicker.obj
 0001:000200c4       WinMain                    000310c4 f   qtmain:qtmain_win.obj
 0001:00020578       ?realloc@?$QVector@PAD@@AAAXHH@Z 00031578 f i qtmain:qtmain_win.obj
 0001:00020708       ?translatorName@CommonWindow@common@@MBA?AVQString@@XZ 00031708 f i common:commonwindow.obj
 0001:0002072c       ??0CommonWindow@common@@QAA@_N0PAVQWidget@@@Z 0003172c f   common:commonwindow.obj
 0001:00020940       ??_GCommonWindow@common@@UAAPAXI@Z 00031940 f i common:commonwindow.obj
 0001:00020940       ??_ECommonWindow@common@@UAAPAXI@Z 00031940 f i  CIL library: CIL module
 0001:000209c0       ?setCenterWidget@CommonWindow@common@@QAAXPAVQWidget@@_N1@Z 000319c0 f   common:commonwindow.obj
 0001:00020a8c       ?createTitleBar@CommonWindow@common@@MAAXXZ 00031a8c f   common:commonwindow.obj
 0001:00020ac0       ?createToolbar@CommonWindow@common@@MAAXXZ 00031ac0 f   common:commonwindow.obj
 0001:00020b24       ?setWallpaper@CommonWindow@common@@MAAXABVQPixmap@@@Z 00031b24 f   common:commonwindow.obj
 0001:00020c58       ?event@CommonWindow@common@@MAA_NPAVQEvent@@@Z 00031c58 f   common:commonwindow.obj
 0001:00020edc       ?winEvent@CommonWindow@common@@MAA_NPAUtagMSG@@PAJ@Z 00031edc f   common:commonwindow.obj
 0001:000211cc       ?eventFilter@CommonWindow@common@@MAA_NPAVQObject@@PAVQEvent@@@Z 000321cc f   common:commonwindow.obj
 0001:00021270       ?installTranslator@CommonWindow@common@@IAAXXZ 00032270 f   common:commonwindow.obj
 0001:00021528       ??_EQTranslator@@UAAPAXI@Z 00032528 f i  CIL library: CIL module
 0001:00021528       ??_GQTranslator@@UAAPAXI@Z 00032528 f i common:commonwindow.obj
 0001:0002155c       ??_ECommonWindow@common@@W7AAPAXI@Z 0003255c f i common:commonwindow.obj
 0001:00021564       ??0PushButtonPrivate@common@@QAA@XZ 00032564 f i common:button.obj
 0001:00021618       ?pixmap@Icon@common@@QBA_NW4Mode@12@AAVQPixmap@@@Z 00032618 f   common:button.obj
 0001:0002182c       ?size@Icon@common@@QBA?AVQSize@@W4Mode@12@@Z 0003282c f   common:button.obj
 0001:000218c8       ??0ButtonGroup@common@@QAA@PAVQObject@@@Z 000328c8 f   common:button.obj
 0001:00021988       ??_EButtonGroup@common@@UAAPAXI@Z 00032988 f i  CIL library: CIL module
 0001:00021988       ??_GButtonGroup@common@@UAAPAXI@Z 00032988 f i common:button.obj
 0001:000219b0       ??1ButtonGroup@common@@UAA@XZ 000329b0 f   common:button.obj
 0001:00021af0       ?detectCheckedButton@ButtonGroupPrivate@common@@QAAXXZ 00032af0 f   common:button.obj
 0001:00021bb0       ?queryButtonList@AbstractButtonPrivate@common@@QBA?AV?$QList@PAVAbstractButton@common@@@@XZ 00032bb0 f   common:button.obj
 0001:00021dbc       ?queryCheckedButton@AbstractButtonPrivate@common@@QBAPAVAbstractButton@2@XZ 00032dbc f   common:button.obj
 0001:00021f50       ?notifyChecked@AbstractButtonPrivate@common@@QAAXXZ 00032f50 f   common:button.obj
 0001:00021fec       ?fixFocusPolicy@AbstractButtonPrivate@common@@QAAXXZ 00032fec f   common:button.obj
 0001:00022114       ?init@AbstractButtonPrivate@common@@QAAXXZ 00033114 f   common:button.obj
 0001:00022204       ?click@AbstractButtonPrivate@common@@QAAXXZ 00033204 f   common:button.obj
 0001:00022348       ?emitClicked@AbstractButtonPrivate@common@@QAAXXZ 00033348 f   common:button.obj
 0001:00022478       ?emitPressed@AbstractButtonPrivate@common@@QAAXXZ 00033478 f   common:button.obj
 0001:00022588       ?emitReleased@AbstractButtonPrivate@common@@QAAXXZ 00033588 f   common:button.obj
 0001:00022698       ?emitLongPressed@AbstractButtonPrivate@common@@QAAXXZ 00033698 f   common:button.obj
 0001:000227a8       ??_EAbstractButton@common@@UAAPAXI@Z 000337a8 f i  CIL library: CIL module
 0001:000227a8       ??_GAbstractButton@common@@UAAPAXI@Z 000337a8 f i common:button.obj
 0001:000227d0       ??1AbstractButton@common@@UAA@XZ 000337d0 f   common:button.obj
 0001:00022894       ?setText@AbstractButton@common@@QAAXABVQString@@@Z 00033894 f   common:button.obj
 0001:00022910       ?setIcon@AbstractButton@common@@QAAXABVIcon@2@@Z 00033910 f   common:button.obj
 0001:000229d4       ??4Icon@common@@QAAAAV01@ABV01@@Z 000339d4 f i common:button.obj
 0001:00022a64       ?setChecked@AbstractButton@common@@QAAX_N@Z 00033a64 f   common:button.obj
 0001:00022be8       ?setDown@AbstractButton@common@@QAAX_N@Z 00033be8 f   common:button.obj
 0001:00022c8c       ?setAutoRepeat@AbstractButton@common@@QAAX_N@Z 00033c8c f   common:button.obj
 0001:00022d14       ?click@AbstractButton@common@@QAAXXZ 00033d14 f   common:button.obj
 0001:00022de0       ?checkStateSet@AbstractButton@common@@MAAXXZ 00033de0 f   common:button.obj
 0001:00022de4       ?nextCheckState@AbstractButton@common@@MAAXXZ 00033de4 f   common:button.obj
 0001:00022e14       ?hitButton@AbstractButton@common@@MBA_NABVQPoint@@@Z 00033e14 f   common:button.obj
 0001:00022e54       ?event@AbstractButton@common@@MAA_NPAVQEvent@@@Z 00033e54 f   common:button.obj
 0001:00022ee0       ?mousePressEvent@AbstractButton@common@@MAAXPAVQMouseEvent@@@Z 00033ee0 f   common:button.obj
 0001:00022fac       ?mouseReleaseEvent@AbstractButton@common@@MAAXPAVQMouseEvent@@@Z 00033fac f   common:button.obj
 0001:000230c4       ?mouseMoveEvent@AbstractButton@common@@MAAXPAVQMouseEvent@@@Z 000340c4 f   common:button.obj
 0001:000231f0       ?keyPressEvent@AbstractButton@common@@MAAXPAVQKeyEvent@@@Z 000341f0 f   common:button.obj
 0001:000232d8       ?keyReleaseEvent@AbstractButton@common@@MAAXPAVQKeyEvent@@@Z 000342d8 f   common:button.obj
 0001:00023360       ?timerEvent@AbstractButton@common@@MAAXPAVQTimerEvent@@@Z 00034360 f   common:button.obj
 0001:000234c4       ?focusInEvent@AbstractButton@common@@MAAXPAVQFocusEvent@@@Z 000344c4 f   common:button.obj
 0001:000234f4       ?focusOutEvent@AbstractButton@common@@MAAXPAVQFocusEvent@@@Z 000344f4 f   common:button.obj
 0001:00023548       ?changeEvent@AbstractButton@common@@MAAXPAVQEvent@@@Z 00034548 f   common:button.obj
 0001:000235c4       ?setIconSize@AbstractButton@common@@QAAXABVQSize@@@Z 000345c4 f   common:button.obj
 0001:00023660       ??0PushButton@common@@QAA@PAVQWidget@@@Z 00034660 f   common:button.obj
 0001:00023704       ??_GPushButton@common@@UAAPAXI@Z 00034704 f i common:button.obj
 0001:00023704       ??_EPushButton@common@@UAAPAXI@Z 00034704 f i  CIL library: CIL module
 0001:00023744       ?sizeHint@PushButton@common@@UBA?AVQSize@@XZ 00034744 f   common:button.obj
 0001:00023880       ?minimumSizeHint@PushButton@common@@UBA?AVQSize@@XZ 00034880 f   common:button.obj
 0001:0002389c       ?drawBackground@PushButton@common@@MAAXPAVQPainter@@ABVQRect@@@Z 0003489c f   common:button.obj
 0001:00023990       ?drawText@PushButton@common@@MAAXPAVQPainter@@ABVQRect@@H@Z 00034990 f   common:button.obj
 0001:00023aac       ?paintEvent@PushButton@common@@MAAXPAVQPaintEvent@@@Z 00034aac f   common:button.obj
 0001:00023b54       ?event@PushButton@common@@MAA_NPAVQEvent@@@Z 00034b54 f   common:button.obj
 0001:00023c00       ?detach@?$QHash@W4Mode@Icon@common@@VQString@@@@QAAXXZ 00034c00 f i common:button.obj
 0001:00023ca0       ??_GAbstractButtonPrivate@common@@QAAPAXI@Z 00034ca0 f i common:button.obj
 0001:00023d44       ?value@?$QHash@W4Mode@Icon@common@@VQString@@@@QBA?BVQString@@ABW4Mode@Icon@common@@@Z 00034d44 f i common:button.obj
 0001:00023e0c       ?insert@?$QHash@W4Mode@Icon@common@@VQString@@@@QAA?AViterator@1@ABW4Mode@Icon@common@@ABVQString@@@Z 00034e0c f i common:button.obj
 0001:00023fac       ?detach_helper@?$QHash@W4Mode@Icon@common@@VQString@@@@AAAXXZ 00034fac f i common:button.obj
 0001:00024034       ?removeAll@?$QList@PAVAbstractButton@common@@@@QAAHABQAVAbstractButton@common@@@Z 00035034 f i common:button.obj
 0001:000240ec       ?detach_helper@?$QList@PAVAbstractButton@common@@@@AAAXXZ 000350ec f i common:button.obj
 0001:000241a8       ?remove@?$QMap@PAVAbstractButton@common@@H@@QAAHABQAVAbstractButton@common@@@Z 000351a8 f i common:button.obj
 0001:000242d8       ?findNode@?$QHash@W4Mode@Icon@common@@VQString@@@@ABAPAPAU?$QHashNode@W4Mode@Icon@common@@VQString@@@@ABW4Mode@Icon@common@@PAI@Z 000352d8 f i common:button.obj
 0001:0002435c       ?duplicateNode@?$QHash@W4Mode@Icon@common@@VQString@@@@CAXPAUNode@QHashData@@PAX@Z 0003535c f i common:button.obj
 0001:0002438c       ?detach_helper@?$QMap@PAVAbstractButton@common@@H@@AAAXXZ 0003538c f i common:button.obj
 0001:0002447c       ?findNode@?$QMap@PAVAbstractButton@common@@H@@ABAPAUNode@QMapData@@ABQAVAbstractButton@common@@@Z 0003547c f i common:button.obj
 0001:0002450c       ??_EAbstractButton@common@@W7AAPAXI@Z 0003550c f i common:button.obj
 0001:00024514       ??_EPushButton@common@@W7AAPAXI@Z 00035514 f i common:button.obj
 0001:0002451c       ?metaObject@CommonWindow@common@@UBAPBUQMetaObject@@XZ 0003551c f   common:moc_commonwindow.obj
 0001:00024538       ?qt_metacast@CommonWindow@common@@UAAPAXPBD@Z 00035538 f   common:moc_commonwindow.obj
 0001:00024580       ?qt_metacall@CommonWindow@common@@UAAHW4Call@QMetaObject@@HPAPAX@Z 00035580 f   common:moc_commonwindow.obj
 0001:0002459c       ?getPixmap@Resource@common@@SA_NABVQString@@PAVQPixmap@@@Z 0003559c f   common:resource.obj
 0001:00024690       ?imageRootPath@Resource@common@@SA?AVQString@@XZ 00035690 f   common:resource.obj
 0001:00024758       ?getWallpaper@Resource@common@@SA_NPAVQPixmap@@@Z 00035758 f   common:resource.obj
 0001:00024bd0       ?getLanguage@Resource@common@@SA?AVQString@@XZ 00035bd0 f   common:resource.obj
 0001:00024d3c       ??0Toolbar@common@@QAA@PAVQWidget@@@Z 00035d3c f   common:toolbar.obj
 0001:00024e14       ??_GToolbar@common@@UAAPAXI@Z 00035e14 f i common:toolbar.obj
 0001:00024e14       ??_EToolbar@common@@UAAPAXI@Z 00035e14 f i  CIL library: CIL module
 0001:00024e48       ??_EToolbar@common@@W7AAPAXI@Z 00035e48 f i common:toolbar.obj
 0001:00024e50       ??_GMouseCapture@common@@UAAPAXI@Z 00035e50 f i common:mousecapture.obj
 0001:00024e50       ??_EMouseCapture@common@@UAAPAXI@Z 00035e50 f i  CIL library: CIL module
 0001:00024e84       ?eventFilter@MouseCapture@common@@MAA_NPAVQObject@@PAVQEvent@@@Z 00035e84 f   common:mousecapture.obj
 0001:00025004       ??0TitleBar@common@@QAA@PAVQWidget@@@Z 00036004 f   common:titlebar.obj
 0001:000250b8       ??_ETitleBar@common@@UAAPAXI@Z 000360b8 f i  CIL library: CIL module
 0001:000250b8       ??_GTitleBar@common@@UAAPAXI@Z 000360b8 f i common:titlebar.obj
 0001:00025104       ?init@TitleBar@common@@IAAXXZ 00036104 f   common:titlebar.obj
 0001:000254e8       ?mousePressEvent@TitleBar@common@@MAAXPAVQMouseEvent@@@Z 000364e8 f   common:titlebar.obj
 0001:00025520       ?mouseReleaseEvent@TitleBar@common@@MAAXPAVQMouseEvent@@@Z 00036520 f   common:titlebar.obj
 0001:000256b8       ?paintEvent@TitleBar@common@@MAAXPAVQPaintEvent@@@Z 000366b8 f   common:titlebar.obj
 0001:00025bc8       ??_ETitleBar@common@@W7AAPAXI@Z 00036bc8 f i common:titlebar.obj
 0001:00025bd0       ?metaObject@AbstractButton@common@@UBAPBUQMetaObject@@XZ 00036bd0 f   common:moc_button.obj
 0001:00025bec       ?qt_metacast@AbstractButton@common@@UAAPAXPBD@Z 00036bec f   common:moc_button.obj
 0001:00025c34       ?qt_metacall@AbstractButton@common@@UAAHW4Call@QMetaObject@@HPAPAX@Z 00036c34 f   common:moc_button.obj
 0001:00026258       ?clicked@AbstractButton@common@@IAAX_N@Z 00037258 f   common:moc_button.obj
 0001:000262a4       ?toggled@AbstractButton@common@@IAAX_N@Z 000372a4 f   common:moc_button.obj
 0001:000262f0       ?metaObject@ButtonGroup@common@@UBAPBUQMetaObject@@XZ 000372f0 f   common:moc_button.obj
 0001:0002630c       ?qt_metacast@ButtonGroup@common@@UAAPAXPBD@Z 0003730c f   common:moc_button.obj
 0001:00026354       ?qt_metacall@ButtonGroup@common@@UAAHW4Call@QMetaObject@@HPAPAX@Z 00037354 f   common:moc_button.obj
 0001:00026518       ?buttonClicked@ButtonGroup@common@@IAAXPAVAbstractButton@2@@Z 00037518 f   common:moc_button.obj
 0001:00026564       ?buttonClicked@ButtonGroup@common@@IAAXH@Z 00037564 f   common:moc_button.obj
 0001:000265b0       ?buttonPressed@ButtonGroup@common@@IAAXPAVAbstractButton@2@@Z 000375b0 f   common:moc_button.obj
 0001:000265fc       ?buttonPressed@ButtonGroup@common@@IAAXH@Z 000375fc f   common:moc_button.obj
 0001:00026648       ?buttonReleased@ButtonGroup@common@@IAAXPAVAbstractButton@2@@Z 00037648 f   common:moc_button.obj
 0001:00026694       ?buttonReleased@ButtonGroup@common@@IAAXH@Z 00037694 f   common:moc_button.obj
 0001:000266e0       ?buttonLongPressed@ButtonGroup@common@@IAAXPAVAbstractButton@2@@Z 000376e0 f   common:moc_button.obj
 0001:0002672c       ?buttonLongPressed@ButtonGroup@common@@IAAXH@Z 0003772c f   common:moc_button.obj
 0001:00026778       ?metaObject@PushButton@common@@UBAPBUQMetaObject@@XZ 00037778 f   common:moc_button.obj
 0001:00026794       ?qt_metacast@PushButton@common@@UAAPAXPBD@Z 00037794 f   common:moc_button.obj
 0001:00026800       ?qt_metacall@PushButton@common@@UAAHW4Call@QMetaObject@@HPAPAX@Z 00037800 f   common:moc_button.obj
 0001:00026804       ?metaObject@Toolbar@common@@UBAPBUQMetaObject@@XZ 00037804 f   common:moc_toolbar.obj
 0001:00026820       ?qt_metacast@Toolbar@common@@UAAPAXPBD@Z 00037820 f   common:moc_toolbar.obj
 0001:00026868       ?qt_metacall@Toolbar@common@@UAAHW4Call@QMetaObject@@HPAPAX@Z 00037868 f   common:moc_toolbar.obj
 0001:00026950       ?metaObject@MouseCapture@common@@UBAPBUQMetaObject@@XZ 00037950 f   common:moc_mousecapture.obj
 0001:0002696c       ?qt_metacast@MouseCapture@common@@UAAPAXPBD@Z 0003796c f   common:moc_mousecapture.obj
 0001:000269b4       ?qt_metacall@MouseCapture@common@@UAAHW4Call@QMetaObject@@HPAPAX@Z 000379b4 f   common:moc_mousecapture.obj
 0001:000269d0       ?metaObject@TitleBar@common@@UBAPBUQMetaObject@@XZ 000379d0 f   common:moc_titlebar.obj
 0001:000269ec       ?qt_metacast@TitleBar@common@@UAAPAXPBD@Z 000379ec f   common:moc_titlebar.obj
 0001:00026a34       ?qt_metacall@TitleBar@common@@UAAHW4Call@QMetaObject@@HPAPAX@Z 00037a34 f   common:moc_titlebar.obj
 0001:00026acc       __security_check_cookie    00037acc f   corelibc:armsecgs.obj
 0001:00026ae0       __gsfailure                00037ae0 f   corelibc:armsecgs.obj
 0001:00026b24       ??3@YAXPAX@Z               00037b24 f   corelibc:COREDLL.dll
 0001:00026b34       ??_7type_info@@6B@         00037b34 f   corelibc:COREDLL.dll
 0001:00026b44       ??2@YAPAXI@Z               00037b44 f   corelibc:COREDLL.dll
 0001:00026b54       ?what@exception@std@@UBAPBDXZ 00037b54 f   corelibc:COREDLL.dll
 0001:00026b64       ??1exception@std@@UAA@XZ   00037b64 f   corelibc:COREDLL.dll
 0001:00026b74       ??0exception@std@@QAA@PBD@Z 00037b74 f   corelibc:COREDLL.dll
 0001:00026b84       ??0exception@std@@QAA@ABV01@@Z 00037b84 f   corelibc:COREDLL.dll
 0001:00026b94       _purecall                  00037b94 f   corelibc:COREDLL.dll
 0001:00026ba4       _onexit                    00037ba4 f   corelibc:onexit.obj
 0001:00026c74       atexit                     00037c74 f   corelibc:onexit.obj
 0001:00026d14       WinMainCRTStartup          00037d14 f   corelibc:pegwmain.obj
 0001:00026d48       __security_init_cookie     00037d48 f   corelibc:seccinit.obj
 0001:00026da4       __report_gsfailure         00037da4 f   corelibc:COREDLL.dll
 0001:00026db4       realloc                    00037db4 f   corelibc:COREDLL.dll
 0001:00026dc4       malloc                     00037dc4 f   corelibc:COREDLL.dll
 0001:00026dd4       _msize                     00037dd4 f   corelibc:COREDLL.dll
 0001:00026de4       _XcptFilter                00037de4 f   corelibc:COREDLL.dll
 0001:00026ebc       exit                       00037ebc f   corelibc:cexit.obj
 0001:00026ed4       _exit                      00037ed4 f   corelibc:cexit.obj
 0001:00026f14       _initterm                  00037f14 f   corelibc:crt0dat.obj
 0001:00026f48       _cinit                     00037f48 f   corelibc:crt0dat.obj
 0001:00026f7c       __C_specific_handler       00037f7c f   corelibc:COREDLL.dll
 0001:00026f8c       __security_gen_cookie2     00037f8c f   corelibc:COREDLL.dll
 0001:00026f9c       free                       00037f9c f   corelibc:COREDLL.dll
 0001:00026fac       RegQueryValueExW           00037fac f   coredll:COREDLL.dll
 0001:00026fbc       Sleep                      00037fbc f   coredll:COREDLL.dll
 0001:00026fcc       RegOpenKeyExW              00037fcc f   coredll:COREDLL.dll
 0001:00026fdc       CloseHandle                00037fdc f   coredll:COREDLL.dll
 0001:00026fec       SetLocalTime               00037fec f   coredll:COREDLL.dll
 0001:00026ffc       SendMessageW               00037ffc f   coredll:COREDLL.dll
 0001:0002700c       FindWindowW                0003800c f   coredll:COREDLL.dll
 0001:0002701c       GetLocalTime               0003801c f   coredll:COREDLL.dll
 0001:0002702c       RegisterWindowMessageW     0003802c f   coredll:COREDLL.dll
 0001:0002703c       FreeLibrary                0003803c f   coredll:COREDLL.dll
 0001:0002704c       LoadLibraryW               0003804c f   coredll:COREDLL.dll
 0001:0002705c       GetProcAddressW            0003805c f   coredll:COREDLL.dll
 0001:0002706c       InterlockedCompareExchange 0003806c f   coredll:COREDLL.dll
 0001:0002707c       TerminateProcess           0003807c f   coredll:COREDLL.dll
 0001:0002708c       ?mcu_key_pic@@YAXXZ        0003808c f   McuAgent:systemapi.obj
 0001:000270a0       ?mcu_sys_set_datetime@@YAXABU_SYSTEMTIME@@@Z 000380a0 f   McuAgent:systemapi.obj
 0001:000270d4       ?mcu_sys_trigger_beep@@YAXW4BEEP_TYPE@@@Z 000380d4 f   McuAgent:systemapi.obj
 0001:000270dc       ?mcu_sys_mouse_press@@YAXHH@Z 000380dc f   McuAgent:systemapi.obj
 0001:000270f8       ?mcu_sys_mouse_release@@YAXHH@Z 000380f8 f   McuAgent:systemapi.obj
 0001:00027118       ?mcu_sys_set_swc_mode@@YAX_N@Z 00038118 f   McuAgent:systemapi.obj
 0001:00027134       ?mcu_sys_set_swc_type@@YAXW4SWC_TYPE@@@Z 00038134 f   McuAgent:systemapi.obj
 0001:00027148       ?mcu_sys_set_swc_value@@YAXHW4KEY@@@Z 00038148 f   McuAgent:systemapi.obj
 0001:0002715c       ?mcu_sys_get_swc_key@@YA_NPAUtagMSG@@PAH@Z 0003815c f   McuAgent:systemapi.obj
 0001:000271a0       ?PostMsg2Mcu@@YA_NIIJ@Z    000381a0 f   McuAgent:McuAgent.obj
 0001:000271dc       ?Mpu_PostBeepStatusToMcu@@YAXE@Z 000381dc f   McuAgent:McuAgent.obj
 0001:000271f4       ?mouseCapture@AppClient@@YA_NPAUtagMSG@@PAH@Z 000381f4 f   appclient:appclient.obj
 0001:0002722c       ?intentHome@AppClient@@YAXABV?$basic_string@DU?$char_traits@D@std@@V?$allocator@D@2@@std@@@Z 0003822c f   appclient:appclient.obj
 0001:000272e4       ?intentBack@AppClient@@YAXABV?$basic_string@DU?$char_traits@D@std@@V?$allocator@D@2@@std@@@Z 000382e4 f   appclient:appclient.obj
 0001:0002739c       ?intentStart@AppClient@@YAXABV?$basic_string@DU?$char_traits@D@std@@V?$allocator@D@2@@std@@0@Z 0003839c f   appclient:appclient.obj
 0001:00027460       ?intentFactoryReset@AppClient@@YAXABV?$basic_string@DU?$char_traits@D@std@@V?$allocator@D@2@@std@@@Z 00038460 f   appclient:appclient.obj
 0001:0002750c       ?responseStarted@AppClient@@YAXABV?$basic_string@DU?$char_traits@D@std@@V?$allocator@D@2@@std@@@Z 0003850c f   appclient:appclient.obj
 0001:000275c4       ?responseClosed@AppClient@@YAXABV?$basic_string@DU?$char_traits@D@std@@V?$allocator@D@2@@std@@@Z 000385c4 f   appclient:appclient.obj
 0001:0002767c       ?responseBackgroundChanged@AppClient@@YAXABV?$basic_string@DU?$char_traits@D@std@@V?$allocator@D@2@@std@@@Z 0003867c f   appclient:appclient.obj
 0001:0002772c       ?releaseDC@QPaintDevice@@UBAXPAUHDC__@@@Z 0003872c f   QtGui4:QtGui4.dll
 0001:0002773c       ?getDC@QPaintDevice@@UBAPAUHDC__@@XZ 0003873c f   QtGui4:QtGui4.dll
 0001:0002774c       ?metric@QPixmap@@MBAHW4PaintDeviceMetric@QPaintDevice@@@Z 0003874c f   QtGui4:QtGui4.dll
 0001:0002775c       ?paintEngine@QPixmap@@UBAPAVQPaintEngine@@XZ 0003875c f   QtGui4:QtGui4.dll
 0001:0002776c       ?devType@QPixmap@@UBAHXZ   0003876c f   QtGui4:QtGui4.dll
 0001:0002777c       ?languageChange@QWidget@@MAAXXZ 0003877c f   QtGui4:QtGui4.dll
 0001:0002778c       ?windowActivationChange@QWidget@@MAAX_N@Z 0003878c f   QtGui4:QtGui4.dll
 0001:0002779c       ?fontChange@QWidget@@MAAXABVQFont@@@Z 0003879c f   QtGui4:QtGui4.dll
 0001:000277ac       ?paletteChange@QWidget@@MAAXABVQPalette@@@Z 000387ac f   QtGui4:QtGui4.dll
 0001:000277bc       ?enabledChange@QWidget@@MAAX_N@Z 000387bc f   QtGui4:QtGui4.dll
 0001:000277cc       ?styleChange@QWidget@@MAAXAAVQStyle@@@Z 000387cc f   QtGui4:QtGui4.dll
 0001:000277dc       ?focusNextPrevChild@QWidget@@MAA_N_N@Z 000387dc f   QtGui4:QtGui4.dll
 0001:000277ec       ?inputMethodQuery@QWidget@@UBA?AVQVariant@@W4InputMethodQuery@Qt@@@Z 000387ec f   QtGui4:QtGui4.dll
 0001:000277fc       ?inputMethodEvent@QWidget@@MAAXPAVQInputMethodEvent@@@Z 000387fc f   QtGui4:QtGui4.dll
 0001:0002780c       ?metric@QWidget@@MBAHW4PaintDeviceMetric@QPaintDevice@@@Z 0003880c f   QtGui4:QtGui4.dll
 0001:0002781c       ?changeEvent@QWidget@@MAAXPAVQEvent@@@Z 0003881c f   QtGui4:QtGui4.dll
 0001:0002782c       ?winEvent@QWidget@@MAA_NPAUtagMSG@@PAJ@Z 0003882c f   QtGui4:QtGui4.dll
 0001:0002783c       ?hideEvent@QWidget@@MAAXPAVQHideEvent@@@Z 0003883c f   QtGui4:QtGui4.dll
 0001:0002784c       ?showEvent@QWidget@@MAAXPAVQShowEvent@@@Z 0003884c f   QtGui4:QtGui4.dll
 0001:0002785c       ?actionEvent@QWidget@@MAAXPAVQActionEvent@@@Z 0003885c f   QtGui4:QtGui4.dll
 0001:0002786c       ?closeEvent@QWidget@@MAAXPAVQCloseEvent@@@Z 0003886c f   QtGui4:QtGui4.dll
 0001:0002787c       ?resizeEvent@QWidget@@MAAXPAVQResizeEvent@@@Z 0003887c f   QtGui4:QtGui4.dll
 0001:0002788c       ?moveEvent@QWidget@@MAAXPAVQMoveEvent@@@Z 0003888c f   QtGui4:QtGui4.dll
 0001:0002789c       ?paintEvent@QWidget@@MAAXPAVQPaintEvent@@@Z 0003889c f   QtGui4:QtGui4.dll
 0001:000278ac       ?leaveEvent@QWidget@@MAAXPAVQEvent@@@Z 000388ac f   QtGui4:QtGui4.dll
 0001:000278bc       ?enterEvent@QWidget@@MAAXPAVQEvent@@@Z 000388bc f   QtGui4:QtGui4.dll
 0001:000278cc       ?focusOutEvent@QWidget@@MAAXPAVQFocusEvent@@@Z 000388cc f   QtGui4:QtGui4.dll
 0001:000278dc       ?focusInEvent@QWidget@@MAAXPAVQFocusEvent@@@Z 000388dc f   QtGui4:QtGui4.dll
 0001:000278ec       ?keyReleaseEvent@QWidget@@MAAXPAVQKeyEvent@@@Z 000388ec f   QtGui4:QtGui4.dll
 0001:000278fc       ?keyPressEvent@QWidget@@MAAXPAVQKeyEvent@@@Z 000388fc f   QtGui4:QtGui4.dll
 0001:0002790c       ?mouseMoveEvent@QWidget@@MAAXPAVQMouseEvent@@@Z 0003890c f   QtGui4:QtGui4.dll
 0001:0002791c       ?mouseDoubleClickEvent@QWidget@@MAAXPAVQMouseEvent@@@Z 0003891c f   QtGui4:QtGui4.dll
 0001:0002792c       ?mouseReleaseEvent@QWidget@@MAAXPAVQMouseEvent@@@Z 0003892c f   QtGui4:QtGui4.dll
 0001:0002793c       ?mousePressEvent@QWidget@@MAAXPAVQMouseEvent@@@Z 0003893c f   QtGui4:QtGui4.dll
 0001:0002794c       ?event@QWidget@@MAA_NPAVQEvent@@@Z 0003894c f   QtGui4:QtGui4.dll
 0001:0002795c       ?paintEngine@QWidget@@UBAPAVQPaintEngine@@XZ 0003895c f   QtGui4:QtGui4.dll
 0001:0002796c       ?releaseDC@QWidget@@UBAXPAUHDC__@@@Z 0003896c f   QtGui4:QtGui4.dll
 0001:0002797c       ?getDC@QWidget@@UBAPAUHDC__@@XZ 0003897c f   QtGui4:QtGui4.dll
 0001:0002798c       ?heightForWidth@QWidget@@UBAHH@Z 0003898c f   QtGui4:QtGui4.dll
 0001:0002799c       ?minimumSizeHint@QWidget@@UBA?AVQSize@@XZ 0003899c f   QtGui4:QtGui4.dll
 0001:000279ac       ?sizeHint@QWidget@@UBA?AVQSize@@XZ 000389ac f   QtGui4:QtGui4.dll
 0001:000279bc       ?setVisible@QWidget@@UAAX_N@Z 000389bc f   QtGui4:QtGui4.dll
 0001:000279cc       ?devType@QWidget@@UBAHXZ   000389cc f   QtGui4:QtGui4.dll
 0001:000279dc       ?qt_metacall@QWidget@@UAAHW4Call@QMetaObject@@HPAPAX@Z 000389dc f   QtGui4:QtGui4.dll
 0001:000279ec       ?qt_metacast@QWidget@@UAAPAXPBD@Z 000389ec f   QtGui4:QtGui4.dll
 0001:000279fc       ?metaObject@QWidget@@UBAPBUQMetaObject@@XZ 000389fc f   QtGui4:QtGui4.dll
 0001:00027a0c       ?setHeaderData@QAbstractProxyModel@@UAA_NHW4Orientation@Qt@@ABVQVariant@@H@Z 00038a0c f   QtGui4:QtGui4.dll
 0001:00027a1c       ?itemData@QAbstractProxyModel@@UBA?AV?$QMap@HVQVariant@@@@ABVQModelIndex@@@Z 00038a1c f   QtGui4:QtGui4.dll
 0001:00027a2c       ?headerData@QAbstractProxyModel@@UBA?AVQVariant@@HW4Orientation@Qt@@H@Z 00038a2c f   QtGui4:QtGui4.dll
 0001:00027a3c       ?revert@QAbstractProxyModel@@UAAXXZ 00038a3c f   QtGui4:QtGui4.dll
 0001:00027a4c       ?submit@QAbstractProxyModel@@UAA_NXZ 00038a4c f   QtGui4:QtGui4.dll
 0001:00027a5c       ?mapSelectionFromSource@QAbstractProxyModel@@UBA?AVQItemSelection@@ABV2@@Z 00038a5c f   QtGui4:QtGui4.dll
 0001:00027a6c       ?mapSelectionToSource@QAbstractProxyModel@@UBA?AVQItemSelection@@ABV2@@Z 00038a6c f   QtGui4:QtGui4.dll
 0001:00027a7c       ?setSourceModel@QAbstractProxyModel@@UAAXPAVQAbstractItemModel@@@Z 00038a7c f   QtGui4:QtGui4.dll
 0001:00027a8c       ?metric@QImage@@MBAHW4PaintDeviceMetric@QPaintDevice@@@Z 00038a8c f   QtGui4:QtGui4.dll
 0001:00027a9c       ?paintEngine@QImage@@UBAPAVQPaintEngine@@XZ 00038a9c f   QtGui4:QtGui4.dll
 0001:00027aac       ?devType@QImage@@UBAHXZ    00038aac f   QtGui4:QtGui4.dll
 0001:00027abc       ?timerEvent@QAbstractButton@@MAAXPAVQTimerEvent@@@Z 00038abc f   QtGui4:QtGui4.dll
 0001:00027acc       ?changeEvent@QAbstractButton@@MAAXPAVQEvent@@@Z 00038acc f   QtGui4:QtGui4.dll
 0001:00027adc       ?focusOutEvent@QAbstractButton@@MAAXPAVQFocusEvent@@@Z 00038adc f   QtGui4:QtGui4.dll
 0001:00027aec       ?focusInEvent@QAbstractButton@@MAAXPAVQFocusEvent@@@Z 00038aec f   QtGui4:QtGui4.dll
 0001:00027afc       ?mouseMoveEvent@QAbstractButton@@MAAXPAVQMouseEvent@@@Z 00038afc f   QtGui4:QtGui4.dll
 0001:00027b0c       ?mouseReleaseEvent@QAbstractButton@@MAAXPAVQMouseEvent@@@Z 00038b0c f   QtGui4:QtGui4.dll
 0001:00027b1c       ?mousePressEvent@QAbstractButton@@MAAXPAVQMouseEvent@@@Z 00038b1c f   QtGui4:QtGui4.dll
 0001:00027b2c       ?keyReleaseEvent@QAbstractButton@@MAAXPAVQKeyEvent@@@Z 00038b2c f   QtGui4:QtGui4.dll
 0001:00027b3c       ?keyPressEvent@QAbstractButton@@MAAXPAVQKeyEvent@@@Z 00038b3c f   QtGui4:QtGui4.dll
 0001:00027b4c       ?event@QAbstractButton@@MAA_NPAVQEvent@@@Z 00038b4c f   QtGui4:QtGui4.dll
 0001:00027b5c       ?nextCheckState@QAbstractButton@@MAAXXZ 00038b5c f   QtGui4:QtGui4.dll
 0001:00027b6c       ?checkStateSet@QAbstractButton@@MAAXXZ 00038b6c f   QtGui4:QtGui4.dll
 0001:00027b7c       ?hitButton@QAbstractButton@@MBA_NABVQPoint@@@Z 00038b7c f   QtGui4:QtGui4.dll
 0001:00027b8c       ?qt_metacall@QAbstractButton@@UAAHW4Call@QMetaObject@@HPAPAX@Z 00038b8c f   QtGui4:QtGui4.dll
 0001:00027b9c       ?qt_metacast@QAbstractButton@@UAAPAXPBD@Z 00038b9c f   QtGui4:QtGui4.dll
 0001:00027bac       ?metaObject@QAbstractButton@@UBAPBUQMetaObject@@XZ 00038bac f   QtGui4:QtGui4.dll
 0001:00027bbc       ?standardPalette@QStyle@@UBA?AVQPalette@@XZ 00038bbc f   QtGui4:QtGui4.dll
 0001:00027bcc       ?drawItemPixmap@QStyle@@UBAXPAVQPainter@@ABVQRect@@HABVQPixmap@@@Z 00038bcc f   QtGui4:QtGui4.dll
 0001:00027bdc       ?drawItemText@QStyle@@UBAXPAVQPainter@@ABVQRect@@HABVQPalette@@_NABVQString@@W4ColorRole@4@@Z 00038bdc f   QtGui4:QtGui4.dll
 0001:00027bec       ?itemPixmapRect@QStyle@@UBA?AVQRect@@ABV2@HABVQPixmap@@@Z 00038bec f   QtGui4:QtGui4.dll
 0001:00027bfc       ?itemTextRect@QStyle@@UBA?AVQRect@@ABVQFontMetrics@@ABV2@H_NABVQString@@@Z 00038bfc f   QtGui4:QtGui4.dll
 0001:00027c0c       ?changeEvent@QAbstractSlider@@MAAXPAVQEvent@@@Z 00038c0c f   QtGui4:QtGui4.dll
 0001:00027c1c       ?timerEvent@QAbstractSlider@@MAAXPAVQTimerEvent@@@Z 00038c1c f   QtGui4:QtGui4.dll
 0001:00027c2c       ?keyPressEvent@QAbstractSlider@@MAAXPAVQKeyEvent@@@Z 00038c2c f   QtGui4:QtGui4.dll
 0001:00027c3c       ?sliderChange@QAbstractSlider@@MAAXW4SliderChange@1@@Z 00038c3c f   QtGui4:QtGui4.dll
 0001:00027c4c       ?mouseMoveEvent@QSlider@@MAAXPAVQMouseEvent@@@Z 00038c4c f   QtGui4:QtGui4.dll
 0001:00027c5c       ?mouseReleaseEvent@QSlider@@MAAXPAVQMouseEvent@@@Z 00038c5c f   QtGui4:QtGui4.dll
 0001:00027c6c       ?mousePressEvent@QSlider@@MAAXPAVQMouseEvent@@@Z 00038c6c f   QtGui4:QtGui4.dll
 0001:00027c7c       ?paintEvent@QSlider@@MAAXPAVQPaintEvent@@@Z 00038c7c f   QtGui4:QtGui4.dll
 0001:00027c8c       ?event@QSlider@@UAA_NPAVQEvent@@@Z 00038c8c f   QtGui4:QtGui4.dll
 0001:00027c9c       ?minimumSizeHint@QSlider@@UBA?AVQSize@@XZ 00038c9c f   QtGui4:QtGui4.dll
 0001:00027cac       ?sizeHint@QSlider@@UBA?AVQSize@@XZ 00038cac f   QtGui4:QtGui4.dll
 0001:00027cbc       ?qt_metacall@QSlider@@UAAHW4Call@QMetaObject@@HPAPAX@Z 00038cbc f   QtGui4:QtGui4.dll
 0001:00027ccc       ?qt_metacast@QSlider@@UAAPAXPBD@Z 00038ccc f   QtGui4:QtGui4.dll
 0001:00027cdc       ?metaObject@QSlider@@UBAPBUQMetaObject@@XZ 00038cdc f   QtGui4:QtGui4.dll
 0001:00027cec       ?unpolish@QCommonStyle@@UAAXPAVQWidget@@@Z 00038cec f   QtGui4:QtGui4.dll
 0001:00027cfc       ?unpolish@QCommonStyle@@UAAXPAVQApplication@@@Z 00038cfc f   QtGui4:QtGui4.dll
 0001:00027d0c       ?polish@QCommonStyle@@UAAXAAVQPalette@@@Z 00038d0c f   QtGui4:QtGui4.dll
 0001:00027d1c       ?polish@QCommonStyle@@UAAXPAVQApplication@@@Z 00038d1c f   QtGui4:QtGui4.dll
 0001:00027d2c       ?polish@QCommonStyle@@UAAXPAVQWidget@@@Z 00038d2c f   QtGui4:QtGui4.dll
 0001:00027d3c       ?generatedIconPixmap@QCommonStyle@@UBA?AVQPixmap@@W4Mode@QIcon@@ABV2@PBVQStyleOption@@@Z 00038d3c f   QtGui4:QtGui4.dll
 0001:00027d4c       ?standardPixmap@QCommonStyle@@UBA?AVQPixmap@@W4StandardPixmap@QStyle@@PBVQStyleOption@@PBVQWidget@@@Z 00038d4c f   QtGui4:QtGui4.dll
 0001:00027d5c       ?styleHint@QCommonStyle@@UBAHW4StyleHint@QStyle@@PBVQStyleOption@@PBVQWidget@@PAVQStyleHintReturn@@@Z 00038d5c f   QtGui4:QtGui4.dll
 0001:00027d6c       ?hitTestComplexControl@QCommonStyle@@UBA?AW4SubControl@QStyle@@W4ComplexControl@3@PBVQStyleOptionComplex@@ABVQPoint@@PBVQWidget@@@Z 00038d6c f   QtGui4:QtGui4.dll
 0001:00027d7c       ?subElementRect@QCommonStyle@@UBA?AVQRect@@W4SubElement@QStyle@@PBVQStyleOption@@PBVQWidget@@@Z 00038d7c f   QtGui4:QtGui4.dll
 0001:00027d8c       ?drawControl@QCommonStyle@@UBAXW4ControlElement@QStyle@@PBVQStyleOption@@PAVQPainter@@PBVQWidget@@@Z 00038d8c f   QtGui4:QtGui4.dll
 0001:00027d9c       ?drawPrimitive@QCommonStyle@@UBAXW4PrimitiveElement@QStyle@@PBVQStyleOption@@PAVQPainter@@PBVQWidget@@@Z 00038d9c f   QtGui4:QtGui4.dll
 0001:00027dac       ?qt_metacall@QCommonStyle@@UAAHW4Call@QMetaObject@@HPAPAX@Z 00038dac f   QtGui4:QtGui4.dll
 0001:00027dbc       ?qt_metacast@QCommonStyle@@UAAPAXPBD@Z 00038dbc f   QtGui4:QtGui4.dll
 0001:00027dcc       ?metaObject@QCommonStyle@@UBAPBUQMetaObject@@XZ 00038dcc f   QtGui4:QtGui4.dll
 0001:00027ddc       ?focusNextPrevChild@QLabel@@MAA_N_N@Z 00038ddc f   QtGui4:QtGui4.dll
 0001:00027dec       ?focusOutEvent@QLabel@@MAAXPAVQFocusEvent@@@Z 00038dec f   QtGui4:QtGui4.dll
 0001:00027dfc       ?focusInEvent@QLabel@@MAAXPAVQFocusEvent@@@Z 00038dfc f   QtGui4:QtGui4.dll
 0001:00027e0c       ?mouseReleaseEvent@QLabel@@MAAXPAVQMouseEvent@@@Z 00038e0c f   QtGui4:QtGui4.dll
 0001:00027e1c       ?mouseMoveEvent@QLabel@@MAAXPAVQMouseEvent@@@Z 00038e1c f   QtGui4:QtGui4.dll
 0001:00027e2c       ?mousePressEvent@QLabel@@MAAXPAVQMouseEvent@@@Z 00038e2c f   QtGui4:QtGui4.dll
 0001:00027e3c       ?changeEvent@QLabel@@MAAXPAVQEvent@@@Z 00038e3c f   QtGui4:QtGui4.dll
 0001:00027e4c       ?paintEvent@QLabel@@MAAXPAVQPaintEvent@@@Z 00038e4c f   QtGui4:QtGui4.dll
 0001:00027e5c       ?keyPressEvent@QLabel@@MAAXPAVQKeyEvent@@@Z 00038e5c f   QtGui4:QtGui4.dll
 0001:00027e6c       ?event@QLabel@@MAA_NPAVQEvent@@@Z 00038e6c f   QtGui4:QtGui4.dll
 0001:00027e7c       ?heightForWidth@QLabel@@UBAHH@Z 00038e7c f   QtGui4:QtGui4.dll
 0001:00027e8c       ?minimumSizeHint@QLabel@@UBA?AVQSize@@XZ 00038e8c f   QtGui4:QtGui4.dll
 0001:00027e9c       ?sizeHint@QLabel@@UBA?AVQSize@@XZ 00038e9c f   QtGui4:QtGui4.dll
 0001:00027eac       ?qt_metacall@QLabel@@UAAHW4Call@QMetaObject@@HPAPAX@Z 00038eac f   QtGui4:QtGui4.dll
 0001:00027ebc       ?qt_metacast@QLabel@@UAAPAXPBD@Z 00038ebc f   QtGui4:QtGui4.dll
 0001:00027ecc       ?metaObject@QLabel@@UBAPBUQMetaObject@@XZ 00038ecc f   QtGui4:QtGui4.dll
 0001:00027edc       ?disconnectNotify@QObject@@MAAXPBD@Z 00038edc f   QtCore4:QtCore4.dll
 0001:00027eec       ?connectNotify@QObject@@MAAXPBD@Z 00038eec f   QtCore4:QtCore4.dll
 0001:00027efc       ?customEvent@QObject@@MAAXPAVQEvent@@@Z 00038efc f   QtCore4:QtCore4.dll
 0001:00027f0c       ?childEvent@QObject@@MAAXPAVQChildEvent@@@Z 00038f0c f   QtCore4:QtCore4.dll
 0001:00027f1c       ?timerEvent@QObject@@MAAXPAVQTimerEvent@@@Z 00038f1c f   QtCore4:QtCore4.dll
 0001:00027f2c       ?eventFilter@QObject@@UAA_NPAV1@PAVQEvent@@@Z 00038f2c f   QtCore4:QtCore4.dll
 0001:00027f3c       ?interpolated@QVariantAnimation@@MBA?AVQVariant@@ABV2@0M@Z 00038f3c f   QtCore4:QtCore4.dll
 0001:00027f4c       ?updateCurrentTime@QVariantAnimation@@MAAXH@Z 00038f4c f   QtCore4:QtCore4.dll
 0001:00027f5c       ?duration@QVariantAnimation@@UBAHXZ 00038f5c f   QtCore4:QtCore4.dll
 0001:00027f6c       ?updateState@QPropertyAnimation@@MAAXW4State@QAbstractAnimation@@0@Z 00038f6c f   QtCore4:QtCore4.dll
 0001:00027f7c       ?updateCurrentValue@QPropertyAnimation@@MAAXABVQVariant@@@Z 00038f7c f   QtCore4:QtCore4.dll
 0001:00027f8c       ?event@QPropertyAnimation@@MAA_NPAVQEvent@@@Z 00038f8c f   QtCore4:QtCore4.dll
 0001:00027f9c       ?qt_metacall@QPropertyAnimation@@UAAHW4Call@QMetaObject@@HPAPAX@Z 00038f9c f   QtCore4:QtCore4.dll
 0001:00027fac       ?qt_metacast@QPropertyAnimation@@UAAPAXPBD@Z 00038fac f   QtCore4:QtCore4.dll
 0001:00027fbc       ?metaObject@QPropertyAnimation@@UBAPBUQMetaObject@@XZ 00038fbc f   QtCore4:QtCore4.dll
 0001:00027fcc       ?updateDirection@QAbstractAnimation@@MAAXW4Direction@1@@Z 00038fcc f   QtCore4:QtCore4.dll
 0001:00027fdc       ?revert@QAbstractItemModel@@UAAXXZ 00038fdc f   QtCore4:QtCore4.dll
 0001:00027fec       ?submit@QAbstractItemModel@@UAA_NXZ 00038fec f   QtCore4:QtCore4.dll
 0001:00027ffc       ?span@QAbstractItemModel@@UBA?AVQSize@@ABVQModelIndex@@@Z 00038ffc f   QtCore4:QtCore4.dll
 0001:0002800c       ?match@QAbstractItemModel@@UBA?AV?$QList@VQModelIndex@@@@ABVQModelIndex@@HABVQVariant@@HV?$QFlags@W4MatchFlag@Qt@@@@@Z 0003900c f   QtCore4:QtCore4.dll
 0001:0002801c       ?buddy@QAbstractItemModel@@UBA?AVQModelIndex@@ABV2@@Z 0003901c f   QtCore4:QtCore4.dll
 0001:0002802c       ?sort@QAbstractItemModel@@UAAXHW4SortOrder@Qt@@@Z 0003902c f   QtCore4:QtCore4.dll
 0001:0002803c       ?canFetchMore@QAbstractItemModel@@UBA_NABVQModelIndex@@@Z 0003903c f   QtCore4:QtCore4.dll
 0001:0002804c       ?fetchMore@QAbstractItemModel@@UAAXABVQModelIndex@@@Z 0003904c f   QtCore4:QtCore4.dll
 0001:0002805c       ?removeColumns@QAbstractItemModel@@UAA_NHHABVQModelIndex@@@Z 0003905c f   QtCore4:QtCore4.dll
 0001:0002806c       ?removeRows@QAbstractItemModel@@UAA_NHHABVQModelIndex@@@Z 0003906c f   QtCore4:QtCore4.dll
 0001:0002807c       ?insertColumns@QAbstractItemModel@@UAA_NHHABVQModelIndex@@@Z 0003907c f   QtCore4:QtCore4.dll
 0001:0002808c       ?insertRows@QAbstractItemModel@@UAA_NHHABVQModelIndex@@@Z 0003908c f   QtCore4:QtCore4.dll
 0001:0002809c       ?supportedDropActions@QAbstractItemModel@@UBA?AV?$QFlags@W4DropAction@Qt@@@@XZ 0003909c f   QtCore4:QtCore4.dll
 0001:000280ac       ?dropMimeData@QAbstractItemModel@@UAA_NPBVQMimeData@@W4DropAction@Qt@@HHABVQModelIndex@@@Z 000390ac f   QtCore4:QtCore4.dll
 0001:000280bc       ?mimeData@QAbstractItemModel@@UBAPAVQMimeData@@ABV?$QList@VQModelIndex@@@@@Z 000390bc f   QtCore4:QtCore4.dll
 0001:000280cc       ?mimeTypes@QAbstractItemModel@@UBA?AVQStringList@@XZ 000390cc f   QtCore4:QtCore4.dll
 0001:000280dc       ?setItemData@QAbstractItemModel@@UAA_NABVQModelIndex@@ABV?$QMap@HVQVariant@@@@@Z 000390dc f   QtCore4:QtCore4.dll
 0001:000280ec       ?itemData@QAbstractItemModel@@UBA?AV?$QMap@HVQVariant@@@@ABVQModelIndex@@@Z 000390ec f   QtCore4:QtCore4.dll
 0001:000280fc       ?setHeaderData@QAbstractItemModel@@UAA_NHW4Orientation@Qt@@ABVQVariant@@H@Z 000390fc f   QtCore4:QtCore4.dll
 0001:0002810c       ?headerData@QAbstractItemModel@@UBA?AVQVariant@@HW4Orientation@Qt@@H@Z 0003910c f   QtCore4:QtCore4.dll
 0001:0002811c       ?setData@QAbstractItemModel@@UAA_NABVQModelIndex@@ABVQVariant@@H@Z 0003911c f   QtCore4:QtCore4.dll
 0001:0002812c       ?hasChildren@QAbstractItemModel@@UBA_NABVQModelIndex@@@Z 0003912c f   QtCore4:QtCore4.dll
 0001:0002813c       ?event@QObject@@UAA_NPAVQEvent@@@Z 0003913c f   QtCore4:QtCore4.dll
 0001:0002814c       ?qt_metacall@QObject@@UAAHW4Call@QMetaObject@@HPAPAX@Z 0003914c f   QtCore4:QtCore4.dll
 0001:0002815c       ?qt_metacast@QObject@@UAAPAXPBD@Z 0003915c f   QtCore4:QtCore4.dll
 0001:0002816c       ?metaObject@QObject@@UBAPBUQMetaObject@@XZ 0003916c f   QtCore4:QtCore4.dll
 0001:0002817c       ?flags@QAbstractItemModel@@UBA?AV?$QFlags@W4ItemFlag@Qt@@@@ABVQModelIndex@@@Z 0003917c f   QtCore4:QtCore4.dll
 0001:0002818c       ?qt_metacall@QAbstractItemModel@@UAAHW4Call@QMetaObject@@HPAPAX@Z 0003918c f   QtCore4:QtCore4.dll
 0001:0002819c       ?qt_metacast@QAbstractItemModel@@UAAPAXPBD@Z 0003919c f   QtCore4:QtCore4.dll
 0001:000281ac       ?metaObject@QAbstractItemModel@@UBAPBUQMetaObject@@XZ 000391ac f   QtCore4:QtCore4.dll
 0001:000281bc       ?qWinMain@@YAXPAUHINSTANCE__@@0PADHAAHAAV?$QVector@PAD@@@Z 000391bc f   QtCore4:QtCore4.dll
 0001:000281cc       ?isEmpty@QTranslator@@UBA_NXZ 000391cc f   QtCore4:QtCore4.dll
 0001:000281dc       ?translate@QTranslator@@UBA?AVQString@@PBD00@Z 000391dc f   QtCore4:QtCore4.dll
 0001:000281ec       ?qt_metacall@QTranslator@@UAAHW4Call@QMetaObject@@HPAPAX@Z 000391ec f   QtCore4:QtCore4.dll
 0001:000281fc       ?qt_metacast@QTranslator@@UAAPAXPBD@Z 000391fc f   QtCore4:QtCore4.dll
 0001:0002820c       ?metaObject@QTranslator@@UBAPBUQMetaObject@@XZ 0003920c f   QtCore4:QtCore4.dll
 0001:00028224       ??0logic_error@std@@QAA@ABV?$basic_string@DU?$char_traits@D@std@@V?$allocator@D@2@@1@@Z 00039224 f i libcpmt:string.obj
 0001:00028298       ?what@logic_error@std@@UBAPBDXZ 00039298 f i libcpmt:string.obj
 0001:000282b0       ??_Glogic_error@std@@UAAPAXI@Z 000392b0 f i libcpmt:string.obj
 0001:000282b0       ??_Elogic_error@std@@UAAPAXI@Z 000392b0 f i libcpmt:string.obj
 0001:000282f0       ??1length_error@std@@UAA@XZ 000392f0 f i libcpmt:string.obj
 0001:0002831c       ??_Elength_error@std@@UAAPAXI@Z 0003931c f i libcpmt:string.obj
 0001:0002831c       ??_Glength_error@std@@UAAPAXI@Z 0003931c f i libcpmt:string.obj
 0001:0002835c       ??1out_of_range@std@@UAA@XZ 0003935c f i libcpmt:string.obj
 0001:00028388       ??_Eout_of_range@std@@UAAPAXI@Z 00039388 f i libcpmt:string.obj
 0001:00028388       ??_Gout_of_range@std@@UAAPAXI@Z 00039388 f i libcpmt:string.obj
 0001:000283d0       ?_Xlen@_String_base@std@@SAXXZ 000393d0 f   libcpmt:string.obj
 0001:00028430       ??0logic_error@std@@QAA@ABV01@@Z 00039430 f i libcpmt:string.obj
 0001:000284ac       ?_Xran@_String_base@std@@SAXXZ 000394ac f   libcpmt:string.obj
 0001:00028504       ??0out_of_range@std@@QAA@ABV01@@Z 00039504 f i libcpmt:string.obj
 0001:00028524       ??0length_error@std@@QAA@ABV01@@Z 00039524 f i libcpmt:string.obj
 0001:00028544       __CxxFrameHandler3         00039544 f   MSVCRT:msvcr80.dll
 0001:00028550       __GSHandlerCheckCommon     00039550 f   MSVCRT:gshandler.obj
 0001:00028588       __GSHandlerCheck           00039588 f   MSVCRT:gshandler.obj
 0001:000285a8       strcpy_s                   000395a8 f   MSVCRT:msvcr80.dll
 0001:000285b4       memcpy                     000395b4 f   corelibc:COREDLL.dll
 0001:000285c4       strlen                     000395c4 f   corelibc:COREDLL.dll
 0001:000285d4       __CxxThrowException        000395d4 f   corelibc:COREDLL.dll
 0001:000285e4       ??0exception@std@@QAA@XZ   000395e4 f   corelibc:COREDLL.dll
 0001:000285f4       GetCommandLineW            000395f4 f   coredll:COREDLL.dll
 0001:00028604       CreateMutexW               00039604 f   coredll:COREDLL.dll
 0001:00028614       GetModuleFileNameW         00039614 f   coredll:COREDLL.dll
 0001:00028624       GetLastError               00039624 f   coredll:COREDLL.dll
 0001:00028634       SetForegroundWindow        00039634 f   coredll:COREDLL.dll
 0001:00028644       NKDbgPrintfW               00039644 f   coredll:COREDLL.dll
 0001:00028654       PostMessageW               00039654 f   coredll:COREDLL.dll
 0001:00028664       GetThreadCallStack         00039664 f   coredll:COREDLL.dll
 0001:00028674       SetLastError               00039674 f   coredll:COREDLL.dll
 0001:00028684       AddVectoredExceptionHandler 00039684 f   coredll:COREDLL.dll
 0001:00028694       strcmp                     00039694 f   corelibc:COREDLL.dll
 0002:00000000       __xc_a                     0003a000     corelibc:crt0init.obj
 0002:00000090       __xc_z                     0003a090     corelibc:crt0init.obj
 0002:00000094       __xi_a                     0003a094     corelibc:crt0init.obj
 0002:00000098       __xi_z                     0003a098     corelibc:crt0init.obj
 0002:0000009c       __xp_a                     0003a09c     corelibc:crt0init.obj
 0002:000000a0       __xp_z                     0003a0a0     corelibc:crt0init.obj
 0002:000000a4       __xt_a                     0003a0a4     corelibc:crt0init.obj
 0002:000000a8       __xt_z                     0003a0a8     corelibc:crt0init.obj
 0002:000000b0       ??_C@_1BA@HLKMPPL@?$AAA?$AAP?$AAP?$AA_?$AAM?$AAC?$AAU?$AA?$AA@ 0003a0b0     McuAgent:McuAgent.obj
 0002:000000c0       ??_C@_1O@LOCKAFKO@?$AAa?$AAp?$AAp?$AAm?$AAa?$AAn?$AA?$AA@ 0003a0c0     appclient:appclient.obj
 0002:000000d4       ??_7bad_alloc@std@@6B@     0003a0d4     libcpmt:string.obj
 0002:0000011c       ??_7logic_error@std@@6B@   0003a11c     libcpmt:string.obj
 0002:00000128       ??_7length_error@std@@6B@  0003a128     libcpmt:string.obj
 0002:00000134       ??_7out_of_range@std@@6B@  0003a134     libcpmt:string.obj
 0002:00000178       ??_C@_0BA@JFNIOLAK@string?5too?5long?$AA@ 0003a178     libcpmt:string.obj
 0002:00000200       ??_C@_0BI@CFPLBAOH@invalid?5string?5position?$AA@ 0003a200     libcpmt:string.obj
 0002:00000218       ??_C@_0P@GHFPNOJB@bad?5allocation?$AA@ 0003a218     main.obj
 0002:00000228       ??_C@_0BG@DGMJCMGP@list_item_unfocus?4png?$AA@ 0003a228     listview.obj
 0002:00000240       ??_C@_0BE@NEENFHM@list_item_focus?4png?$AA@ 0003a240     listview.obj
 0002:00000254       ??_C@_0BB@DCAAMNDO@bg_frm_title?4png?$AA@ 0003a254     listview.obj
 0002:00000268       ??_C@_0BE@BOECFGLF@bg_frm_no_title?4png?$AA@ 0003a268     listview.obj
 0002:0000027c       ??_C@_0CG@GFAAFONM@1dataChanged?$CIQModelIndex?0QModelI@ 0003a27c     listview.obj
 0002:000002a4       ??_C@_0CG@CIOIFOLL@2dataChanged?$CIQModelIndex?0QModelI@ 0003a2a4     listview.obj
 0002:000002cc       ??_C@_08FNGGPCEF@1reset?$CI?$CJ?$AA@ 0003a2cc     listview.obj
 0002:000002d8       ??_C@_0O@JONNLIJF@2modelReset?$CI?$CJ?$AA@ 0003a2d8     listview.obj
 0002:000002e8       ??_C@_0O@CACPGHBM@ind_arrow?4png?$AA@ 0003a2e8     listview.obj
 0002:000002f8       ??_C@_0BA@LOBCILJD@ind_checked?4png?$AA@ 0003a2f8     listview.obj
 0002:00000308       ??_C@_0N@KBGPOIFK@ind_edit?4png?$AA@ 0003a308     listview.obj
 0002:00000318       ??_C@_0BG@BHMIGGAF@1editorValueChanged?$CI?$CJ?$AA@ 0003a318     listview.obj
 0002:00000330       ??_C@_09EADKFBBP@2commit?$CI?$CJ?$AA@ 0003a330     listview.obj
 0002:00000344       ??_SQWidget@@6BQObject@@@  0003a344     listview.obj
 0002:000003f4       ??_SQWidget@@6BQPaintDevice@@@ 0003a3f4     listview.obj
 0002:00000410       ??_SQPixmap@@6B@           0003a410     listview.obj
 0002:0000042c       ??_7ListView@Settings@@6BQObject@@@ 0003a42c     listview.obj
 0002:000004dc       ??_7ListView@Settings@@6BQPaintDevice@@@ 0003a4dc     listview.obj
 0002:000004f4       ??_C@_08MGBGGDON@settings?$AA@ 0003a4f4     window.obj
 0002:00000500       ??_C@_08EEOHOBEO@Settings?$AA@ 0003a500     window.obj
 0002:0000050c       ??_C@_0BH@PEGLMKLA@2selected?$CIQModelIndex?$CJ?$AA@ 0003a50c     window.obj
 0002:00000524       ??_C@_0BI@DBDJIJHK@1goForward?$CIQModelIndex?$CJ?$AA@ 0003a524     window.obj
 0002:0000053c       ??_C@_1M@EHLPOIIM@?$AAD?$AAS?$AAK?$AA2?$AA?3?$AA?$AA@ 0003a53c     window.obj
 0002:00000548       ??_C@_07NJGAEJFG@?$FLDEBUG?$FN?$AA@ 0003a548     window.obj
 0002:00000550       ??_C@_0L@OJOGALPF@window?4cpp?$AA@ 0003a550     window.obj
 0002:0000055c       ??_C@_0BL@MINCANLC@Settings?3?3Window?3?3winEvent?$AA@ 0003a55c     window.obj
 0002:00000578       ??_C@_01JOAMLHOP@?9?$AA@   0003a578     window.obj
 0002:0000057c       ??_C@_0BC@NHNPAAGH@GPS?5SDCARD?5INSERT?$AA@ 0003a57c     window.obj
 0002:00000590       ??_C@_0BD@IFCIPNCH@GPS?5SDCARD?5REMOVED?$AA@ 0003a590     window.obj
 0002:000005a4       ??_C@_0BM@OMIDKDEN@Settings?3?3Window?3?3goForward?$AA@ 0003a5a4     window.obj
 0002:000005c0       ??_C@_06KLHHMIGM@offset?$AA@ 0003a5c0     window.obj
 0002:000005c8       ??_C@_0BD@MFPCEIAO@1onShiftFinished?$CI?$CJ?$AA@ 0003a5c8     window.obj
 0002:000005dc       ??_C@_0M@BMAHFEDH@2finished?$CI?$CJ?$AA@ 0003a5dc     window.obj
 0002:000005ec       ??_SQPropertyAnimation@@6B@ 0003a5ec     window.obj
 0002:00000634       ??_7Window@Settings@@6BQObject@@@ 0003a634     window.obj
 0002:000006f4       ??_7Window@Settings@@6BQPaintDevice@@@ 0003a6f4     window.obj
 0002:0000070c       ??_C@_04LOAJBDKD@true?$AA@ 0003a70c     settingmodel.obj
 0002:00000714       ??_C@_07FPLPHOAN@TechWin?$AA@ 0003a714     settingmodel.obj
 0002:0000071c       ??_C@_0N@FJCGFLAA@settings?4xml?$AA@ 0003a71c     settingmodel.obj
 0002:0000072c       ??_C@_04NHONDGDE@item?$AA@ 0003a72c     settingmodel.obj
 0002:00000734       ??_C@_04MEMAJGDJ@name?$AA@ 0003a734     settingmodel.obj
 0002:0000073c       ??_C@_04DMJJIPAH@icon?$AA@ 0003a73c     settingmodel.obj
 0002:00000744       ??_C@_04GPMDFGEJ@type?$AA@ 0003a744     settingmodel.obj
 0002:0000074c       ??_C@_09BPPAOOPF@wallpaper?$AA@ 0003a74c     settingmodel.obj
 0002:00000758       ??_C@_08FGNPMIBK@datetime?$AA@ 0003a758     settingmodel.obj
 0002:00000764       ??_C@_08KFMADGLE@radiobox?$AA@ 0003a764     settingmodel.obj
 0002:00000770       ??_C@_05LNKCELPI@radio?$AA@ 0003a770     settingmodel.obj
 0002:00000778       ??_C@_06DOPOGBGP@switch?$AA@ 0003a778     settingmodel.obj
 0002:00000780       ??_C@_0M@KJLPJDBI@calibration?$AA@ 0003a780     settingmodel.obj
 0002:0000078c       ??_C@_07OJGHGMNE@factory?$AA@ 0003a78c     settingmodel.obj
 0002:00000794       ??_C@_08PIJCCNC@wheelkey?$AA@ 0003a794     settingmodel.obj
 0002:000007a0       ??_C@_07CPCPJPKL@version?$AA@ 0003a7a0     settingmodel.obj
 0002:000007a8       ??_C@_0L@LMGHDELE@videoparam?$AA@ 0003a7a8     settingmodel.obj
 0002:000007b4       ??_C@_0L@IBIEAACE@filepicker?$AA@ 0003a7b4     settingmodel.obj
 0002:000007c0       ??_C@_06LDFGECMB@slider?$AA@ 0003a7c0     settingmodel.obj
 0002:000007c8       ??_C@_06EBGNBFIA@number?$AA@ 0003a7c8     settingmodel.obj
 0002:000007d0       ??_C@_03ICHNJLJF@key?$AA@  0003a7d0     settingmodel.obj
 0002:000007d4       ??_C@_04MGEIEJAD@exec?$AA@ 0003a7d4     settingmodel.obj
 0002:000007dc       ??_C@_03KLIPLJLL@min?$AA@  0003a7dc     settingmodel.obj
 0002:000007e0       ??_C@_03LJAEFNNE@max?$AA@  0003a7e0     settingmodel.obj
 0002:000007e4       ??_C@_1DA@BKKNAKEB@?$AAD?$AAr?$AAi?$AAv?$AAe?$AAr?$AAs?$AA?2?$AAB?$AAu?$AAi?$AAl?$AAt?$AAI?$AAn?$AA?2?$AAP?$AAr?$AAi?$AAv?$AAa?$AAt?$AAe?$AA?$AA@ 0003a7e4     settingmodel.obj
 0002:00000814       ??_C@_1BE@IMABALHK@?$AAB?$AAu?$AAi?$AAl?$AAd?$AAT?$AAi?$AAm?$AAe?$AA?$AA@ 0003a814     settingmodel.obj
 0002:00000828       ??_C@_08MLMJBMKK@BSP?5?5?5?3?5?$AA@ 0003a828     settingmodel.obj
 0002:00000834       ??_C@_07NGFJPNPN@Version?$AA@ 0003a834     settingmodel.obj
 0002:0000083c       ??_C@_03CNFDKIL@MCU?$AA@   0003a83c     settingmodel.obj
 0002:00000840       ??_C@_08DKPDMNPH@MCU?5?5?5?3?5?$AA@ 0003a840     settingmodel.obj
 0002:0000084c       ??_C@_04JLNKANFB@MPEG?$AA@ 0003a84c     settingmodel.obj
 0002:00000854       ??_C@_08LKOIFIBD@MPEG?5?5?3?5?$AA@ 0003a854     settingmodel.obj
 0002:00000860       ??_C@_05CKOADFNN@SERVO?$AA@ 0003a860     settingmodel.obj
 0002:00000868       ??_C@_08JLCAGNFN@SERVO?5?3?5?$AA@ 0003a868     settingmodel.obj
 0002:00000874       ??_C@_03CLBEGMFP@APP?$AA@  0003a874     settingmodel.obj
 0002:00000878       ??_C@_08HMMLCHIM@APP?5?5?5?3?5?$AA@ 0003a878     settingmodel.obj
 0002:00000884       ??_C@_0BB@GHDJCNKJ@icon_version?4png?$AA@ 0003a884     settingmodel.obj
 0002:00000898       ??_C@_0BC@DDAKKPBD@1onScanFinished?$CI?$CJ?$AA@ 0003a898     settingmodel.obj
 0002:000008ac       ??_C@_0BB@HFFJLPBH@settingmodel?4cpp?$AA@ 0003a8ac     settingmodel.obj
 0002:000008c0       ??_C@_0CB@FKCBDFNC@Settings?3?3NaviPathModel?3?3setData@ 0003a8c0     settingmodel.obj
 0002:000008e4       ??_C@_08FMJDEBNP@GPS_Path?$AA@ 0003a8e4     settingmodel.obj
 0002:000008f0       ??_C@_0BA@GDLBMLIM@Navigation?5file?$AA@ 0003a8f0     settingmodel.obj
 0002:00000900       ??_C@_0BC@DPPGEBHF@icon_gps_file?4png?$AA@ 0003a900     settingmodel.obj
 0002:00000914       ??_C@_0L@JIENHOK@Loading?4?4?4?$AA@ 0003a914     settingmodel.obj
 0002:00000920       ??_C@_0P@MNEOJBLE@File?5no?5found?$CB?$AA@ 0003a920     settingmodel.obj
 0002:00000930       ??_C@_05NIGLEIFC@?$CK?4exe?$AA@ 0003a930     settingmodel.obj
 0002:00000938       ??_C@_0N@FPGGNGFL@?1StorageCard?$AA@ 0003a938     settingmodel.obj
 0002:0000094c       ??_7SettingModel@Settings@@6B@ 0003a94c     settingmodel.obj
 0002:000009ec       ??_7WalkModel@Settings@@6B@ 0003a9ec     settingmodel.obj
 0002:00000aa4       ??_7VersionModel@Settings@@6B@ 0003aaa4     settingmodel.obj
 0002:00000b44       ??_7NaviPathModel@Settings@@6B@ 0003ab44     settingmodel.obj
 0002:00000be4       ??_7FindNaviThread@Settings@@6B@ 0003abe4     settingmodel.obj
 0002:00000c14       ??_C@_08CHMFKJFP@?3images?1?$AA@ 0003ac14     resource.obj
 0002:00000c20       ??_C@_07FIGCPHGH@?1images?$AA@ 0003ac20     resource.obj
 0002:00000c28       ??_C@_0BE@JMNDCOJK@?1default?1wallpaper?1?$AA@ 0003ac28     resource.obj
 0002:00000c3c       ??_C@_0BA@CECHGEBL@wallpaper_1?4png?$AA@ 0003ac3c     resource.obj
 0002:00000c4c       ??_C@_02IAAGKKDJ@On?$AA@   0003ac4c     slideswitch.obj
 0002:00000c50       ??_C@_03GCDBBDDL@Off?$AA@  0003ac50     slideswitch.obj
 0002:00000c54       ??_C@_0BC@MMIAPFKH@bg_ssw_groove?4png?$AA@ 0003ac54     slideswitch.obj
 0002:00000c68       ??_C@_0BC@BKFOPABP@bg_ssw_handle?4png?$AA@ 0003ac68     slideswitch.obj
 0002:00000c84       ??_7SlideSwitch@Settings@@6BQObject@@@ 0003ac84     slideswitch.obj
 0002:00000d3c       ??_7SlideSwitch@Settings@@6BQPaintDevice@@@ 0003ad3c     slideswitch.obj
 0002:00000d58       ??_7PageFactory@Settings@@6B@ 0003ad58     pagefactory.obj
 0002:00000d84       ??_C@_0BA@MAOFNIHM@1OnFinishLoad?$CI?$CJ?$AA@ 0003ad84     wallpaperwidget.obj
 0002:00000d94       ??_C@_0BM@MGPDLCBG@1onChangeWallpaper?$CIQString?$CJ?$AA@ 0003ad94     wallpaperwidget.obj
 0002:00000db0       ??_C@_0BD@PDFAFDG@2selected?$CIQString?$CJ?$AA@ 0003adb0     wallpaperwidget.obj
 0002:00000dc4       ??_C@_0BK@FPFFONOO@?1default?1wallpaper?1thumb?1?$AA@ 0003adc4     wallpaperwidget.obj
 0002:00000de0       ??_C@_0P@BKGBIOMJ@wallpapers?4xml?$AA@ 0003ade0     wallpaperwidget.obj
 0002:00000df0       ??_C@_0L@EPEGFDJP@Wallpapers?$AA@ 0003adf0     wallpaperwidget.obj
 0002:00000dfc       ??_C@_09FAKNONCF@Wallpaper?$AA@ 0003adfc     wallpaperwidget.obj
 0002:00000e0c       ??_SQImage@@6B@            0003ae0c     wallpaperwidget.obj
 0002:00000e28       ??_7LoadImgThread@Settings@@6B@ 0003ae28     wallpaperwidget.obj
 0002:00000e5c       ??_7WallpaperWidget@Settings@@6BQObject@@@ 0003ae5c     wallpaperwidget.obj
 0002:00000f0c       ??_7WallpaperWidget@Settings@@6BQPaintDevice@@@ 0003af0c     wallpaperwidget.obj
 0002:00001564       ?staticMetaObject@PushButton@common@@2UQMetaObject@@B 0003b564     common:moc_button.obj
 0002:00053838       ?staticMetaObject@NumberPicker@Settings@@2UQMetaObject@@B 0008d838     moc_numberpicker.obj
 0002:00053940       ?staticMetaObject@SliderWidget@Settings@@2UQMetaObject@@B 0008d940     moc_slider.obj
 0002:00054434       ?staticMetaObject@SlideSwitch@Settings@@2UQMetaObject@@B 0008e434     moc_slideswitch.obj
 0002:000546fc       ?staticMetaObject@Window@Settings@@2UQMetaObject@@B 0008e6fc     moc_window.obj
 0002:00055848       ??_C@_09HHAKFJGO@1render?$CI?$CJ?$AA@ 0008f848     pictureflow.obj
 0002:00055854       ??_C@_0L@CHKJBFLD@2timeout?$CI?$CJ?$AA@ 0008f854     pictureflow.obj
 0002:00055860       ??_C@_05MPFIAJAP@Arial?$AA@ 0008f860     pictureflow.obj
 0002:00055868       ??_C@_05KOLKDEPN@?$CF1?1?$CF2?$AA@ 0008f868     pictureflow.obj
 0002:00055874       ??_7PictureFlow@@6BQObject@@@ 0008f874     pictureflow.obj
 0002:00055934       ??_7PictureFlow@@6BQPaintDevice@@@ 0008f934     pictureflow.obj
 0002:0005594c       ??_C@_1CO@JJAMAJKC@?$AAW?$AAM?$AAI?$AAD?$AA_?$AAT?$AAI?$AAM?$AAE?$AAF?$AAO?$AAR?$AAM?$AAA?$AAT?$AAC?$AAH?$AAA?$AAN?$AAG?$AAE?$AAD?$AA?$AA@ 0008f94c     datetimewidget.obj
 0002:0005597c       ??_C@_0BC@PFMFAGGO@bg_timeformat?4png?$AA@ 0008f97c     datetimewidget.obj
 0002:00055990       ??_C@_0BA@KMAFOHAA@bg_datetime?4png?$AA@ 0008f990     datetimewidget.obj
 0002:000559a0       ??_C@_0BH@DAIIBPHL@icon_arrowup_focus?4png?$AA@ 0008f9a0     datetimewidget.obj
 0002:000559b8       ??_C@_0BJ@CDJKMMK@icon_arrowup_unfocus?4png?$AA@ 0008f9b8     datetimewidget.obj
 0002:000559d4       ??_C@_0BJ@LCJFCFEB@icon_arrowdown_focus?4png?$AA@ 0008f9d4     datetimewidget.obj
 0002:000559f0       ??_C@_0BL@OBJMCJBM@icon_arrowdown_unfocus?4png?$AA@ 0008f9f0     datetimewidget.obj
 0002:00055a0c       ??_C@_0L@JLIKMNDA@timeformat?$AA@ 0008fa0c     datetimewidget.obj
 0002:00055a18       ??_C@_04JLKEKFA@12HR?$AA@  0008fa18     datetimewidget.obj
 0002:00055a20       ??_C@_0N@ILIFKBCK@btn_ok_f?4png?$AA@ 0008fa20     datetimewidget.obj
 0002:00055a30       ??_C@_0N@GHNGCDEH@btn_ok_n?4png?$AA@ 0008fa30     datetimewidget.obj
 0002:00055a40       ??_C@_0N@OMHNBBP@btn_ok_u?4png?$AA@ 0008fa40     datetimewidget.obj
 0002:00055a50       ??_C@_0N@CDGCJOEA@1onIncYear?$CI?$CJ?$AA@ 0008fa50     datetimewidget.obj
 0002:00055a60       ??_C@_0L@OELOHDKG@2clicked?$CI?$CJ?$AA@ 0008fa60     datetimewidget.obj
 0002:00055a6c       ??_C@_0N@FEMJILCN@1onDecYear?$CI?$CJ?$AA@ 0008fa6c     datetimewidget.obj
 0002:00055a7c       ??_C@_0O@IKPIKJAF@1onIncMonth?$CI?$CJ?$AA@ 0008fa7c     datetimewidget.obj
 0002:00055a8c       ??_C@_0O@LJIMBPPF@1onDecMonth?$CI?$CJ?$AA@ 0008fa8c     datetimewidget.obj
 0002:00055a9c       ??_C@_0M@FOBODFEJ@1onIncDay?$CI?$CJ?$AA@ 0008fa9c     datetimewidget.obj
 0002:00055aa8       ??_C@_0M@PCDLMOEI@1onDecDay?$CI?$CJ?$AA@ 0008faa8     datetimewidget.obj
 0002:00055ab4       ??_C@_0N@NGDABLBO@1onIncHour?$CI?$CJ?$AA@ 0008fab4     datetimewidget.obj
 0002:00055ac4       ??_C@_0N@KBJLAOHD@1onDecHour?$CI?$CJ?$AA@ 0008fac4     datetimewidget.obj
 0002:00055ad4       ??_C@_0P@PEDJNJLL@1onIncMinute?$CI?$CJ?$AA@ 0008fad4     datetimewidget.obj
 0002:00055ae4       ??_C@_0P@EJLHFPBB@1onDecMinute?$CI?$CJ?$AA@ 0008fae4     datetimewidget.obj
 0002:00055af4       ??_C@_0BL@FDBABBJL@1onTimeFormatChanged?$CIbool?$CJ?$AA@ 0008faf4     datetimewidget.obj
 0002:00055b10       ??_C@_0BE@HCPPNHFD@2valueChanged?$CIbool?$CJ?$AA@ 0008fb10     datetimewidget.obj
 0002:00055b24       ??_C@_09EBIDHEL@1onSave?$CI?$CJ?$AA@ 0008fb24     datetimewidget.obj
 0002:00055b30       ??_C@_04GLHBGPFM@24HR?$AA@ 0008fb30     datetimewidget.obj
 0002:00055b38       ??_C@_19GPBMHKKP@?$AAh?$AAo?$AAm?$AAe?$AA?$AA@ 0008fb38     datetimewidget.obj
 0002:00055b44       ??_C@_0BH@ONBPFGGM@yyyy?1MM?1dd?5hh?3mm?3ss?5AP?$AA@ 0008fb44     datetimewidget.obj
 0002:00055b5c       ??_C@_0BE@OMIELMDA@yyyy?1MM?1dd?5hh?3mm?3ss?$AA@ 0008fb5c     datetimewidget.obj
 0002:00055b70       ??_C@_04OKOFBOPB@Time?$AA@ 0008fb70     datetimewidget.obj
 0002:00055b78       ??_C@_04FEDKBIAK@Year?$AA@ 0008fb78     datetimewidget.obj
 0002:00055b80       ??_C@_05MDLMAGGB@Month?$AA@ 0008fb80     datetimewidget.obj
 0002:00055b88       ??_C@_03HNCFIMCB@Day?$AA@  0008fb88     datetimewidget.obj
 0002:00055b8c       ??_C@_04HNCIENPA@Hour?$AA@ 0008fb8c     datetimewidget.obj
 0002:00055b94       ??_C@_06FJCFKMEG@Minute?$AA@ 0008fb94     datetimewidget.obj
 0002:00055b9c       ??_C@_01JLIPDDHJ@?3?$AA@   0008fb9c     datetimewidget.obj
 0002:00055ba4       ??_7FormatSwitch@Settings@@6BQObject@@@ 0008fba4     datetimewidget.obj
 0002:00055c54       ??_7FormatSwitch@Settings@@6BQPaintDevice@@@ 0008fc54     datetimewidget.obj
 0002:00055c74       ??_7DatetimeWidget@Settings@@6BQObject@@@ 0008fc74     datetimewidget.obj
 0002:00055d24       ??_7DatetimeWidget@Settings@@6BQPaintDevice@@@ 0008fd24     datetimewidget.obj
 0002:00055d3c       ??_C@_0BF@LEGIGPHM@bg_msgbox_btn_up?4png?$AA@ 0008fd3c     comfirmbox.obj
 0002:00055d54       ??_C@_0BH@DCPOGIEE@bg_msgbox_btn_down?4png?$AA@ 0008fd54     comfirmbox.obj
 0002:00055d6c       ??_C@_0O@LFNOODNL@bg_msgbox?4png?$AA@ 0008fd6c     comfirmbox.obj
 0002:00055d7c       ??_C@_03CCLAEDDF@Yes?$AA@  0008fd7c     comfirmbox.obj
 0002:00055d80       ??_C@_0BD@DGCNGGDL@icon_btn_check?4png?$AA@ 0008fd80     comfirmbox.obj
 0002:00055d94       ??_C@_02JINPPBEP@No?$AA@   0008fd94     comfirmbox.obj
 0002:00055d98       ??_C@_0BF@LIDHKJEL@icon_btn_uncheck?4png?$AA@ 0008fd98     comfirmbox.obj
 0002:00055db0       ??_C@_09OIPPGABF@2accept?$CI?$CJ?$AA@ 0008fdb0     comfirmbox.obj
 0002:00055dbc       ??_C@_09JAFLPKH@2reject?$CI?$CJ?$AA@ 0008fdbc     comfirmbox.obj
 0002:00055dcc       ??_7ComfirmBox@Settings@@6BQObject@@@ 0008fdcc     comfirmbox.obj
 0002:00055e7c       ??_7ComfirmBox@Settings@@6BQPaintDevice@@@ 0008fe7c     comfirmbox.obj
 0002:00055e9c       ??_7Button@?A0xd69e84ac@@6BQObject@@@ 0008fe9c     comfirmbox.obj
 0002:00055f58       ??_7Button@?A0xd69e84ac@@6BQPaintDevice@@@ 0008ff58     comfirmbox.obj
 0002:00055f70       ??_C@_0CJ@OIIAFPFK@Your?5data?5will?5lost?5after?5factor@ 0008ff70     resetwidget.obj
 0002:00055f9c       ??_C@_0BA@EOLBEAP@Factory?5reset?5?$DP?$AA@ 0008ff9c     resetwidget.obj
 0002:00055fac       ??_C@_0M@BNNJDCPM@1onAccept?$CI?$CJ?$AA@ 0008ffac     resetwidget.obj
 0002:00055fb8       ??_C@_0M@PMCDONEO@1onReject?$CI?$CJ?$AA@ 0008ffb8     resetwidget.obj
 0002:00055fcc       ??_7ResetWidget@Settings@@6BQObject@@@ 0008ffcc     resetwidget.obj
 0002:0005607c       ??_7ResetWidget@Settings@@6BQPaintDevice@@@ 0009007c     resetwidget.obj
 0002:00056094       ??_C@_1BI@CJKPFBEK@?$AAc?$AAo?$AAr?$AAe?$AAd?$AAl?$AAl?$AA?4?$AAd?$AAl?$AAl?$AA?$AA@ 00090094     calibrawidget.obj
 0002:000560ac       ??_C@_1BO@PLJOAMIA@?$AAT?$AAo?$AAu?$AAc?$AAh?$AAC?$AAa?$AAl?$AAi?$AAb?$AAr?$AAa?$AAt?$AAe?$AA?$AA@ 000900ac     calibrawidget.obj
 0002:000560ca       ??_C@_00CNPNBAHC@?$AA@     000900ca     calibrawidget.obj
 0002:000560cc       ??_C@_0BE@OMIPKJNN@Enter?5Calibration?5?$DP?$AA@ 000900cc     calibrawidget.obj
 0002:000560e4       ??_7CalibraWidget@Settings@@6BQObject@@@ 000900e4     calibrawidget.obj
 0002:00056194       ??_7CalibraWidget@Settings@@6BQPaintDevice@@@ 00090194     calibrawidget.obj
 0002:000561ac       ??_C@_0BA@MNBDFCKC@btn_right_n?4png?$AA@ 000901ac     wheelkeywidget.obj
 0002:000561bc       ??_C@_0BA@CBEANAMP@btn_right_f?4png?$AA@ 000901bc     wheelkeywidget.obj
 0002:000561cc       ??_C@_0BA@KEACKAPK@btn_right_u?4png?$AA@ 000901cc     wheelkeywidget.obj
 0002:000561dc       ??_C@_0P@HLJGFGOP@btn_left_n?4png?$AA@ 000901dc     wheelkeywidget.obj
 0002:000561ec       ??_C@_0P@JHMFNEIC@btn_left_f?4png?$AA@ 000901ec     wheelkeywidget.obj
 0002:000561fc       ??_C@_0P@BCIHKELH@btn_left_u?4png?$AA@ 000901fc     wheelkeywidget.obj
 0002:0005620c       ??_C@_0L@NMKAAPDB@1onStart?$CI?$CJ?$AA@ 0009020c     wheelkeywidget.obj
 0002:00056218       ??_C@_0M@KDACHALB@1onFinish?$CI?$CJ?$AA@ 00090218     wheelkeywidget.obj
 0002:00056224       ??_C@_0BJ@JFGLPJML@1onSelected?$CIQModelIndex?$CJ?$AA@ 00090224     wheelkeywidget.obj
 0002:00056240       ??_C@_08FBIFMBFB@KEY_NULL?$AA@ 00090240     wheelkeywidget.obj
 0002:0005624c       ??_C@_09PPFNMKM@KEY_POWER?$AA@ 0009024c     wheelkeywidget.obj
 0002:00056258       ??_C@_0BA@PAPHOCNE@KEY_VOLUME_MUTE?$AA@ 00090258     wheelkeywidget.obj
 0002:00056268       ??_C@_0BA@CDPBFAMM@KEY_VOLUME_DOWN?$AA@ 00090268     wheelkeywidget.obj
 0002:00056278       ??_C@_0O@BAHKGKPI@KEY_VOLUME_UP?$AA@ 00090278     wheelkeywidget.obj
 0002:00056288       ??_C@_08DBGBFCHE@KEY_HOME?$AA@ 00090288     wheelkeywidget.obj
 0002:00056294       ??_C@_08PBDDNGC@KEY_BACK?$AA@ 00090294     wheelkeywidget.obj
 0002:000562a0       ??_C@_0L@MJGDEOMD@KEY_SOURCE?$AA@ 000902a0     wheelkeywidget.obj
 0002:000562ac       ??_C@_07GMJAAPN@KEY_PIC?$AA@ 000902ac     wheelkeywidget.obj
 0002:000562b4       ??_C@_06IJGALKN@KEY_EQ?$AA@ 000902b4     wheelkeywidget.obj
 0002:000562bc       ??_C@_09DMMJIENE@KEY_EJECT?$AA@ 000902bc     wheelkeywidget.obj
 0002:000562c8       ??_C@_08OCDINDHK@KEY_NAVI?$AA@ 000902c8     wheelkeywidget.obj
 0002:000562d4       ??_C@_09JDCFAJIM@KEY_TUNER?$AA@ 000902d4     wheelkeywidget.obj
 0002:000562e0       ??_C@_07IBIJLCLP@KEY_DVD?$AA@ 000902e0     wheelkeywidget.obj
 0002:000562e8       ??_C@_07DJLNOHCI@KEY_USB?$AA@ 000902e8     wheelkeywidget.obj
 0002:000562f0       ??_C@_0L@KFHNMFF@KEY_SDCARD?$AA@ 000902f0     wheelkeywidget.obj
 0002:000562fc       ??_C@_08IAFDLCPO@KEY_BAND?$AA@ 000902fc     wheelkeywidget.obj
 0002:00056308       ??_C@_06DNKJMBPD@KEY_AS?$AA@ 00090308     wheelkeywidget.obj
 0002:00056310       ??_C@_08JMCJIFOA@KEY_PLAY?$AA@ 00090310     wheelkeywidget.obj
 0002:0005631c       ??_C@_08KMHOBBFP@KEY_PREV?$AA@ 0009031c     wheelkeywidget.obj
 0002:00056328       ??_C@_08JIKIAFDL@KEY_NEXT?$AA@ 00090328     wheelkeywidget.obj
 0002:00056334       ??_C@_06NKLJJJM@KEY_UP?$AA@ 00090334     wheelkeywidget.obj
 0002:0005633c       ??_C@_08GNEEABI@KEY_DOWN?$AA@ 0009033c     wheelkeywidget.obj
 0002:00056348       ??_C@_08PENANICB@KEY_LEFT?$AA@ 00090348     wheelkeywidget.obj
 0002:00056354       ??_C@_09MDOGOLEN@KEY_RIGHT?$AA@ 00090354     wheelkeywidget.obj
 0002:00056360       ??_C@_09HDDLMJNK@KEY_ENTER?$AA@ 00090360     wheelkeywidget.obj
 0002:0005636c       ??_C@_0M@OHGCIPHF@KEY_SHUFFLE?$AA@ 0009036c     wheelkeywidget.obj
 0002:00056378       ??_C@_0L@JLPMHBDJ@KEY_REPEAT?$AA@ 00090378     wheelkeywidget.obj
 0002:00056384       ??_C@_08IGGJGLPA@KEY_SCAN?$AA@ 00090384     wheelkeywidget.obj
 0002:00056390       ??_C@_08FKCJLFNA@KEY_GOTO?$AA@ 00090390     wheelkeywidget.obj
 0002:0005639c       ??_C@_09FJPFOPLI@KEY_AUDIO?$AA@ 0009039c     wheelkeywidget.obj
 0002:000563a8       ??_C@_0N@LOHDKKHI@KEY_SUBTITLE?$AA@ 000903a8     wheelkeywidget.obj
 0002:000563b8       ??_C@_0M@FPEKDPK@KEY_DVDNENU?$AA@ 000903b8     wheelkeywidget.obj
 0002:000563c4       ??_C@_09KAFEMMKE@KEY_ANGLE?$AA@ 000903c4     wheelkeywidget.obj
 0002:000563d0       ??_C@_08OABMMIPA@KEY_ZOOM?$AA@ 000903d0     wheelkeywidget.obj
 0002:000563dc       ??_C@_08MCIFNLND@KEY_DAIL?$AA@ 000903dc     wheelkeywidget.obj
 0002:000563e8       ??_C@_0L@MJFJNPGP@KEY_HANGUP?$AA@ 000903e8     wheelkeywidget.obj
 0002:000563f4       ??_C@_09DAAOOBIB@KEY_CLEAR?$AA@ 000903f4     wheelkeywidget.obj
 0002:00056400       ??_C@_05LFBCGMJM@KEY_0?$AA@ 00090400     wheelkeywidget.obj
 0002:00056408       ??_C@_05KMAJFNNN@KEY_1?$AA@ 00090408     wheelkeywidget.obj
 0002:00056410       ??_C@_05IHCEAOBO@KEY_2?$AA@ 00090410     wheelkeywidget.obj
 0002:00056418       ??_C@_05JODPDPFP@KEY_3?$AA@ 00090418     wheelkeywidget.obj
 0002:00056420       ??_C@_05NBHOKJJI@KEY_4?$AA@ 00090420     wheelkeywidget.obj
 0002:00056428       ??_C@_05MIGFJINJ@KEY_5?$AA@ 00090428     wheelkeywidget.obj
 0002:00056430       ??_C@_05ODEIMLBK@KEY_6?$AA@ 00090430     wheelkeywidget.obj
 0002:00056438       ??_C@_05PKFDPKFL@KEY_7?$AA@ 00090438     wheelkeywidget.obj
 0002:00056440       ??_C@_05HNMLOGJE@KEY_8?$AA@ 00090440     wheelkeywidget.obj
 0002:00056448       ??_C@_05GENANHNF@KEY_9?$AA@ 00090448     wheelkeywidget.obj
 0002:00056450       ??_C@_08KNNAFJIL@KEY_STAR?$AA@ 00090450     wheelkeywidget.obj
 0002:0005645c       ??_C@_0P@HDFKLGIG@KEY_NUMBERSIGN?$AA@ 0009045c     wheelkeywidget.obj
 0002:0005646c       ??_C@_0BB@GKPMBFLI@KEY_ENCODER_LEFT?$AA@ 0009046c     wheelkeywidget.obj
 0002:00056480       ??_C@_0BC@EKKLOMGA@KEY_ENCODER_RIGHT?$AA@ 00090480     wheelkeywidget.obj
 0002:00056494       ??_C@_07DEKIEGL@KEY_PIT?$AA@ 00090494     wheelkeywidget.obj
 0002:0005649c       ??_C@_0O@LPKEGODK@KEY_ONSTAR_ON?$AA@ 0009049c     wheelkeywidget.obj
 0002:000564ac       ??_C@_0P@GOIDMEOH@KEY_ONSTAR_OFF?$AA@ 000904ac     wheelkeywidget.obj
 0002:000564bc       ??_C@_08HNOJGGMG@KEY_PLUS?$AA@ 000904bc     wheelkeywidget.obj
 0002:000564c8       ??_C@_0O@LODBCPGC@KEY_BLUETOOTH?$AA@ 000904c8     wheelkeywidget.obj
 0002:000564d8       ??_C@_08BOOENJCC@KEY_IPOD?$AA@ 000904d8     wheelkeywidget.obj
 0002:000564e4       ??_C@_07EMLNGLNP@KEY_CDC?$AA@ 000904e4     wheelkeywidget.obj
 0002:000564ec       ??_C@_06FKDDFECN@KEY_TV?$AA@ 000904ec     wheelkeywidget.obj
 0002:000564f4       ??_C@_06PKBPGGND@KEY_XM?$AA@ 000904f4     wheelkeywidget.obj
 0002:000564fc       ??_C@_07FCGGKBIJ@KEY_AUX?$AA@ 000904fc     wheelkeywidget.obj
 0002:00056504       ??_C@_08FCGLFKJH@KEY_AUX1?$AA@ 00090504     wheelkeywidget.obj
 0002:00056510       ??_C@_08HJEGAJFE@KEY_AUX2?$AA@ 00090510     wheelkeywidget.obj
 0002:0005651c       ??_C@_08PDNBBCKP@KEY_USB1?$AA@ 0009051c     wheelkeywidget.obj
 0002:00056528       ??_C@_08NIPMEBGM@KEY_USB2?$AA@ 00090528     wheelkeywidget.obj
 0002:00056534       ??_C@_0L@HAGBAMFL@KEY_CAMERA?$AA@ 00090534     wheelkeywidget.obj
 0002:00056540       ??_C@_0M@BBLJLNAB@KEY_CAMERA2?$AA@ 00090540     wheelkeywidget.obj
 0002:0005654c       ??_C@_0M@IKCIMEA@KEY_CAMERA3?$AA@ 0009054c     wheelkeywidget.obj
 0002:00056558       ??_C@_0N@KFIFFBDJ@Press?5a?5key?4?$AA@ 00090558     wheelkeywidget.obj
 0002:00056568       ??_C@_07GDLGCAME@Map?5to?4?$AA@ 00090568     wheelkeywidget.obj
 0002:00056570       ??_C@_0L@FHHADKPL@Key?5error?$CB?$AA@ 00090570     wheelkeywidget.obj
 0002:0005657c       ??_C@_05LIBCHGPO@Fail?$CB?$AA@ 0009057c     wheelkeywidget.obj
 0002:00056584       ??_C@_05FHMJPCKA@Start?$AA@ 00090584     wheelkeywidget.obj
 0002:0005658c       ??_C@_06PBAMHIFD@Finish?$AA@ 0009058c     wheelkeywidget.obj
 0002:00056594       ??_C@_0BD@JAEPODC@wheelkeywidget?4cpp?$AA@ 00090594     wheelkeywidget.obj
 0002:000565a8       ??_C@_0CE@FEKNDFPB@Settings?3?3WheelKeyWidget?3?3handle@ 000905a8     wheelkeywidget.obj
 0002:000565cc       ??_C@_07EKAIBOKF@Restart?$AA@ 000905cc     wheelkeywidget.obj
 0002:000565dc       ??_7WheelKeyWidget@Settings@@6BQObject@@@ 000905dc     wheelkeywidget.obj
 0002:0005668c       ??_7WheelKeyWidget@Settings@@6BQPaintDevice@@@ 0009068c     wheelkeywidget.obj
 0002:000566a4       ??_C@_07ECEMPDJM@General?$AA@ 000906a4     translation.obj
 0002:000566ac       ??_C@_08BENDAOKD@Language?$AA@ 000906ac     translation.obj
 0002:000566b8       ??_C@_09GJJPNBNO@S?9Chinese?$AA@ 000906b8     translation.obj
 0002:000566c4       ??_C@_09ILEDMKKH@T?9Chinese?$AA@ 000906c4     translation.obj
 0002:000566d0       ??_C@_09KPHNOAGD@FM?5region?$AA@ 000906d0     translation.obj
 0002:000566dc       ??_C@_0P@EKKAGOOO@Western?5Europe?$AA@ 000906dc     translation.obj
 0002:000566ec       ??_C@_0O@JEDEIHDO@Estern?5Europe?$AA@ 000906ec     translation.obj
 0002:000566fc       ??_C@_0L@JKLIMAFH@P?4R?4?5China?$AA@ 000906fc     translation.obj
 0002:00056708       ??_C@_0O@OPIKIGBJ@North?5America?$AA@ 00090708     translation.obj
 0002:00056718       ??_C@_0O@EKFKCDKB@South?5America?$AA@ 00090718     translation.obj
 0002:00056728       ??_C@_0L@HPKALDCE@Wheel?5keys?$AA@ 00090728     translation.obj
 0002:00056734       ??_C@_0M@LBIOEIOA@Calibration?$AA@ 00090734     translation.obj
 0002:00056740       ??_C@_0O@LMILEPBI@Factory?5reset?$AA@ 00090740     translation.obj
 0002:00056750       ??_C@_05BIPFLOHN@Video?$AA@ 00090750     translation.obj
 0002:00056758       ??_C@_0BA@DHJDDJKK@Lighting?5detect?$AA@ 00090758     translation.obj
 0002:00056768       ??_C@_0BD@FMEPODAN@Video?5only?5parking?$AA@ 00090768     translation.obj
 0002:0005677c       ??_C@_0O@MOGJJNCH@Camera?5mirror?$AA@ 0009077c     translation.obj
 0002:0005678c       ??_C@_0N@KCAKPLKP@Screen?5saver?$AA@ 0009078c     translation.obj
 0002:0005679c       ??_C@_04KNKPIPFB@Mode?$AA@ 0009079c     translation.obj
 0002:000567a4       ??_C@_05BPGNDIAE@Black?$AA@ 000907a4     translation.obj
 0002:000567ac       ??_C@_05DEOOJMJC@Clock?$AA@ 000907ac     translation.obj
 0002:000567b4       ??_C@_06JCBBMBIP@Camera?$AA@ 000907b4     translation.obj
 0002:000567bc       ??_C@_07MKALMBDJ@Timeout?$AA@ 000907bc     translation.obj
 0002:000567c4       ??_C@_05JFNMJDDG@1?5Min?$AA@ 000907c4     translation.obj
 0002:000567cc       ??_C@_05NIBEDCDN@3?5Min?$AA@ 000907cc     translation.obj
 0002:000567d4       ??_C@_05OENNBCA@5?5Min?$AA@ 000907d4     translation.obj
 0002:000567dc       ??_C@_06HMDKJAKI@10?5Min?$AA@ 000907dc     translation.obj
 0002:000567e4       ??_C@_0BA@MKCCFCHJ@Video?5parameter?$AA@ 000907e4     translation.obj
 0002:000567f4       ??_C@_05KKCMAPLJ@Audio?$AA@ 000907f4     translation.obj
 0002:000567fc       ??_C@_04HGDFHEMH@Beep?$AA@ 000907fc     translation.obj
 0002:00056804       ??_C@_09OAPLICEI@Subwoofer?$AA@ 00090804     translation.obj
 0002:00056810       ??_C@_0BA@EKNBBLMC@Audio?5parameter?$AA@ 00090810     translation.obj
 0002:00056820       ??_C@_0L@BNEOIIFN@Navigation?$AA@ 00090820     translation.obj
 0002:0005682c       ??_C@_09GNFKPOBN@Time?5sync?$AA@ 0009082c     translation.obj
 0002:00056838       ??_C@_08KKJFBCAL@COM?5port?$AA@ 00090838     translation.obj
 0002:00056844       ??_C@_05IKDMCILE@COM?51?$AA@ 00090844     translation.obj
 0002:0005684c       ??_C@_05KBBBHLHH@COM?52?$AA@ 0009084c     translation.obj
 0002:00056854       ??_C@_05LIAKEKDG@COM?53?$AA@ 00090854     translation.obj
 0002:0005685c       ??_C@_05PHELNMPB@COM?54?$AA@ 0009085c     translation.obj
 0002:00056864       ??_C@_04PBAHLACE@File?$AA@ 00090864     translation.obj
 0002:0005686c       ??_C@_05BBOGGNLJ@Other?$AA@ 0009086c     translation.obj
 0002:00056874       ??_C@_0M@PBMLCCHO@Camera?5mode?$AA@ 00090874     translation.obj
 0002:00056880       ??_C@_0P@LJKENFLA@Priority?5order?$AA@ 00090880     translation.obj
 0002:00056890       ??_C@_0O@GPHDEKC@Trigger?5delay?$AA@ 00090890     translation.obj
 0002:000568a0       ??_C@_0BA@IALJADGJ@Auto?5Mic?5Enable?$AA@ 000908a0     translation.obj
 0002:000568b0       ??_C@_0N@HBKKDIGF@Camera1?5mode?$AA@ 000908b0     translation.obj
 0002:000568c0       ??_C@_0N@EAECCCPI@Camera2?5mode?$AA@ 000908c0     translation.obj
 0002:000568d0       ??_C@_0N@OGDFCJEM@Camera3?5mode?$AA@ 000908d0     translation.obj
 0002:000568e0       ??_C@_06EFAGIKOH@Normal?$AA@ 000908e0     translation.obj
 0002:000568e8       ??_C@_06HEBCCGHL@Mirror?$AA@ 000908e8     translation.obj
 0002:000568f0       ??_C@_07DKFOHFAF@Skipped?$AA@ 000908f0     translation.obj
 0002:000568f8       ??_C@_06FLCJJPBG@Region?$AA@ 000908f8     translation.obj
 0002:00056900       ??_C@_08ICDICBHJ@Region?51?$AA@ 00090900     translation.obj
 0002:0005690c       ??_C@_08KJBFHCLK@Region?52?$AA@ 0009090c     translation.obj
 0002:00056918       ??_C@_08LAAOEDPL@Region?53?$AA@ 00090918     translation.obj
 0002:00056924       ??_C@_08PPEPNFDM@Region?54?$AA@ 00090924     translation.obj
 0002:00056930       ??_C@_08OGFEOEHN@Region?55?$AA@ 00090930     translation.obj
 0002:0005693c       ??_C@_08MNHJLHLO@Region?56?$AA@ 0009093c     translation.obj
 0002:00056948       ??_C@_06DHPIOBCM@Rating?$AA@ 00090948     translation.obj
 0002:00056954       ??_SQMouseEvent@@6B@       00090954     flickable.obj
 0002:0005695c       ??_7FlickableTicker@Settings@@6B@ 0009095c     flickable.obj
 0002:0005698c       ??_7Flickable@Settings@@6B@ 0009098c     flickable.obj
 0002:0005699c       ??_C@_0P@OCGBHGDI@lv_unfocus?4png?$AA@ 0009099c     keyview.obj
 0002:000569ac       ??_C@_0N@LGJOAGE@lv_focus?4png?$AA@ 000909ac     keyview.obj
 0002:000569bc       ??_C@_0BE@JPFLAAIO@1onModelDestroyed?$CI?$CJ?$AA@ 000909bc     keyview.obj
 0002:000569d0       ??_C@_0N@FGAMGGE@2destroyed?$CI?$CJ?$AA@ 000909d0     keyview.obj
 0002:000569e0       ??_C@_0BD@NOBGDAAO@1onLayoutChanged?$CI?$CJ?$AA@ 000909e0     keyview.obj
 0002:000569f4       ??_C@_0BB@PGFBEGAH@2layoutChanged?$CI?$CJ?$AA@ 000909f4     keyview.obj
 0002:00056a0c       ??_7KeyView@Settings@@6BQObject@@@ 00090a0c     keyview.obj
 0002:00056abc       ??_7KeyView@Settings@@6BQPaintDevice@@@ 00090abc     keyview.obj
 0002:00056ad8       ??_7KeyView@Settings@@6B@  00090ad8     keyview.obj
 0002:00056aec       ??_7QEmptyListModel@Settings@@6B@ 00090aec     keyview.obj
 0002:00056b88       ??_C@_0M@ICJFNPCJ@1stepDown?$CI?$CJ?$AA@ 00090b88     spinbox.obj
 0002:00056b94       ??_C@_09EBAIBIOC@1stepUp?$CI?$CJ?$AA@ 00090b94     spinbox.obj
 0002:00056ba0       ??_C@_0P@MBBNFCJO@slider_bar?4png?$AA@ 00090ba0     slider.obj
 0002:00056bb0       ??_C@_0BB@CAEEPION@slider_thumb?4png?$AA@ 00090bb0     slider.obj
 0002:00056bc4       ??_C@_0BF@IALHKIAI@1onValueChanged?$CIint?$CJ?$AA@ 00090bc4     slider.obj
 0002:00056bdc       ??_C@_0BD@OIBDOPAP@2valueChanged?$CIint?$CJ?$AA@ 00090bdc     slider.obj
 0002:00056bf0       ??_C@_0BE@EGEFPALB@1onSliderReleased?$CI?$CJ?$AA@ 00090bf0     slider.obj
 0002:00056c04       ??_C@_0BC@DPLBAPGD@2sliderReleased?$CI?$CJ?$AA@ 00090c04     slider.obj
 0002:00056c1c       ??_SQLabel@@6BQObject@@@   00090c1c     slider.obj
 0002:00056ccc       ??_SQLabel@@6BQPaintDevice@@@ 00090ccc     slider.obj
 0002:00056cec       ??_SQSlider@@6BQObject@@@  00090cec     slider.obj
 0002:00056da0       ??_SQSlider@@6BQPaintDevice@@@ 00090da0     slider.obj
 0002:00056dbc       ??_7ArthurStyle@Settings@@6B@ 00090dbc     slider.obj
 0002:00056e44       ??_7SliderWidget@Settings@@6BQObject@@@ 00090e44     slider.obj
 0002:00056efc       ??_7SliderWidget@Settings@@6BQPaintDevice@@@ 00090efc     slider.obj
 0002:00056f14       ??_C@_0L@BFOBOION@vsb_bg?4png?$AA@ 00090f14     numberpicker.obj
 0002:00056f20       ??_C@_0N@ELAMIGJH@vsb_dn_f?4png?$AA@ 00090f20     numberpicker.obj
 0002:00056f30       ??_C@_0N@KHFPAEPK@vsb_dn_n?4png?$AA@ 00090f30     numberpicker.obj
 0002:00056f40       ??_C@_0N@JJIGPDLM@vsb_up_f?4png?$AA@ 00090f40     numberpicker.obj
 0002:00056f50       ??_C@_0N@HFNFHBNB@vsb_up_n?4png?$AA@ 00090f50     numberpicker.obj
 0002:00056f60       ??_C@_0BE@BADDCJKA@bg_numberpicker?4png?$AA@ 00090f60     numberpicker.obj
 0002:00056f74       ??_C@_0BA@BJHIHOPO@bg_np_btn_n?4png?$AA@ 00090f74     numberpicker.obj
 0002:00056f84       ??_C@_0BA@PFCLPMJD@bg_np_btn_f?4png?$AA@ 00090f84     numberpicker.obj
 0002:00056f94       ??_C@_06FMBNCPDL@Cancel?$AA@ 00090f94     numberpicker.obj
 0002:00056f9c       ??_C@_02GIPFHKNO@OK?$AA@   00090f9c     numberpicker.obj
 0002:00056fa0       ??_C@_0M@LFBMADPG@1onCommit?$CI?$CJ?$AA@ 00090fa0     numberpicker.obj
 0002:00056fac       ??_C@_0M@PLCJPIFI@1onCancel?$CI?$CJ?$AA@ 00090fac     numberpicker.obj
 0002:00056fbc       ??_7VSpinBox@Settings@@6BQObject@@@ 00090fbc     numberpicker.obj
 0002:0005706c       ??_7VSpinBox@Settings@@6BQPaintDevice@@@ 0009106c     numberpicker.obj
 0002:0005708c       ??_7NumberPicker@Settings@@6BQObject@@@ 0009108c     numberpicker.obj
 0002:00057144       ??_7NumberPicker@Settings@@6BQPaintDevice@@@ 00091144     numberpicker.obj
 0002:0005715c       ??_C@_09EOHFEMHM@Flickable?$AA@ 0009115c     moc_keyview.obj
 0002:00057168       ??_C@_05OLKCHDPN@?$CC?$CF1?$CC?5?$AA@ 00091168     qtmain:qtmain_win.obj
 0002:00057170       ??_C@_01IDAFKMJL@_?$AA@    00091170     qtmain:qtmain_win.obj
 0002:00057174       ??_C@_01KICIPPFI@?2?$AA@   00091174     qtmain:qtmain_win.obj
 0002:00057178       ??_C@_01LFCBOECM@?4?$AA@   00091178     common:commonwindow.obj
 0002:0005717c       ??_C@_0O@LOPOCGJM@translations?1?$AA@ 0009117c     common:commonwindow.obj
 0002:00057190       ??_SQTranslator@@6B@       00091190     common:commonwindow.obj
 0002:000571cc       ??_7CommonWindow@common@@6BQObject@@@ 000911cc     common:commonwindow.obj
 0002:0005728c       ??_7CommonWindow@common@@6BQPaintDevice@@@ 0009128c     common:commonwindow.obj
 0002:000572a4       ??_C@_09LLMAMAEI@?3?1images?1?$AA@ 000912a4     common:button.obj
 0002:000572b0       ??_C@_01KMDKNFGN@?1?$AA@   000912b0     common:button.obj
 0002:000572b8       ??_7ButtonGroup@common@@6B@ 000912b8     common:button.obj
 0002:000572ec       ??_7AbstractButton@common@@6BQObject@@@ 000912ec     common:button.obj
 0002:000573a8       ??_7AbstractButton@common@@6BQPaintDevice@@@ 000913a8     common:button.obj
 0002:000573c4       ??_7PushButton@common@@6BQObject@@@ 000913c4     common:button.obj
 0002:00057488       ??_7PushButton@common@@6BQPaintDevice@@@ 00091488     common:button.obj
 0002:000574a0       ??_C@_0BH@PHGHKOPD@?3?1commonwindow?1images?1?$AA@ 000914a0     common:resource.obj
 0002:000574b8       ??_C@_05FIIJPEKB@en_US?$AA@ 000914b8     common:resource.obj
 0002:000574c0       ??_C@_08JGCCIMAA@language?$AA@ 000914c0     common:resource.obj
 0002:000574cc       ??_C@_0BE@JGHJFAF@2buttonClicked?$CIint?$CJ?$AA@ 000914cc     common:toolbar.obj
 0002:000574e0       ??_C@_0BI@HKKIGNPC@2buttonLongPressed?$CIint?$CJ?$AA@ 000914e0     common:toolbar.obj
 0002:000574fc       ??_7Toolbar@common@@6BQObject@@@ 000914fc     common:toolbar.obj
 0002:000575ac       ??_7Toolbar@common@@6BQPaintDevice@@@ 000915ac     common:toolbar.obj
 0002:000575c8       ??_7MouseCapture@common@@6B@ 000915c8     common:mousecapture.obj
 0002:000575f4       ??_C@_0BA@NNLJAONN@bg_titlebar?4png?$AA@ 000915f4     common:titlebar.obj
 0002:00057604       ??_C@_0P@OOCJBKMM@btn_home_n?4png?$AA@ 00091604     common:titlebar.obj
 0002:00057614       ??_C@_0P@MPAHLLFL@btn_back_n?4png?$AA@ 00091614     common:titlebar.obj
 0002:00057624       ??_C@_0P@CHKJIKB@btn_home_f?4png?$AA@ 00091624     common:titlebar.obj
 0002:00057634       ??_C@_0P@CDFEDJDG@btn_back_f?4png?$AA@ 00091634     common:titlebar.obj
 0002:0005764c       ??_7TitleBar@common@@6BQObject@@@ 0009164c     common:titlebar.obj
 0002:000576fc       ??_7TitleBar@common@@6BQPaintDevice@@@ 000916fc     common:titlebar.obj
 0002:00057714       ??_C@_1CE@OKBNKJLK@?$AAE?$AAx?$AAc?$AAe?$AAp?$AAt?$AAi?$AAo?$AAn?$AA?3?$AA?5?$AA?$CF?$AA0?$AA8?$AAx?$AA?$AN?$AA?6?$AA?$AA@ 00091714     sdk:exception.obj
 0002:00057738       ??_C@_1BC@MNCIGDCO@?$AA0?$AAx?$AA?$CF?$AA0?$AA8?$AAx?$AA?$AN?$AA?6?$AA?$AA@ 00091738     sdk:exception.obj
 0002:00057828       ??_R4logic_error@std@@6B@  00091828     libcpmt:string.obj
 0002:0005783c       ??_R3logic_error@std@@8    0009183c     libcpmt:string.obj
 0002:0005784c       ??_R2logic_error@std@@8    0009184c     libcpmt:string.obj
 0002:00057858       ??_R1A@?0A@EA@logic_error@std@@8 00091858     libcpmt:string.obj
 0002:00057874       ??_R4length_error@std@@6B@ 00091874     libcpmt:string.obj
 0002:00057888       ??_R3length_error@std@@8   00091888     libcpmt:string.obj
 0002:00057898       ??_R2length_error@std@@8   00091898     libcpmt:string.obj
 0002:000578a8       ??_R1A@?0A@EA@length_error@std@@8 000918a8     libcpmt:string.obj
 0002:000578c4       ??_R4out_of_range@std@@6B@ 000918c4     libcpmt:string.obj
 0002:000578d8       ??_R3out_of_range@std@@8   000918d8     libcpmt:string.obj
 0002:000578e8       ??_R2out_of_range@std@@8   000918e8     libcpmt:string.obj
 0002:000578f8       ??_R1A@?0A@EA@out_of_range@std@@8 000918f8     libcpmt:string.obj
 0002:00057914       ??_R4ListView@Settings@@6BQPaintDevice@@@ 00091914     listview.obj
 0002:00057928       ??_R4ListView@Settings@@6BQObject@@@ 00091928     listview.obj
 0002:0005793c       ??_R3ListView@Settings@@8  0009193c     listview.obj
 0002:0005794c       ??_R2ListView@Settings@@8  0009194c     listview.obj
 0002:00057960       ??_R1A@?0A@EA@ListView@Settings@@8 00091960     listview.obj
 0002:0005797c       ??_R4QPixmap@@6B@          0009197c     listview.obj
 0002:00057990       ??_R3QPixmap@@8            00091990     listview.obj
 0002:000579a0       ??_R2QPixmap@@8            000919a0     listview.obj
 0002:000579ac       ??_R1A@?0A@EA@QPixmap@@8   000919ac     listview.obj
 0002:000579c8       ??_R4QWidget@@6BQPaintDevice@@@ 000919c8     listview.obj
 0002:000579dc       ??_R4QWidget@@6BQObject@@@ 000919dc     listview.obj
 0002:000579f0       ??_R3QWidget@@8            000919f0     listview.obj
 0002:00057a00       ??_R2QWidget@@8            00091a00     listview.obj
 0002:00057a10       ??_R17?0A@EA@QPaintDevice@@8 00091a10     listview.obj
 0002:00057a2c       ??_R3QPaintDevice@@8       00091a2c     listview.obj
 0002:00057a3c       ??_R2QPaintDevice@@8       00091a3c     listview.obj
 0002:00057a44       ??_R1A@?0A@EA@QPaintDevice@@8 00091a44     listview.obj
 0002:00057a60       ??_R1A@?0A@EA@QObject@@8   00091a60     listview.obj
 0002:00057a7c       ??_R3QObject@@8            00091a7c     listview.obj
 0002:00057a8c       ??_R2QObject@@8            00091a8c     listview.obj
 0002:00057a94       ??_R1A@?0A@EA@QWidget@@8   00091a94     listview.obj
 0002:00057ab0       ??_R4Window@Settings@@6BQPaintDevice@@@ 00091ab0     window.obj
 0002:00057ac4       ??_R4Window@Settings@@6BQObject@@@ 00091ac4     window.obj
 0002:00057ad8       ??_R3Window@Settings@@8    00091ad8     window.obj
 0002:00057ae8       ??_R2Window@Settings@@8    00091ae8     window.obj
 0002:00057b00       ??_R1A@?0A@EA@CommonWindow@common@@8 00091b00     window.obj
 0002:00057b1c       ??_R3CommonWindow@common@@8 00091b1c     window.obj
 0002:00057b2c       ??_R2CommonWindow@common@@8 00091b2c     window.obj
 0002:00057b40       ??_R1A@?0A@EA@Window@Settings@@8 00091b40     window.obj
 0002:00057b5c       ??_R4QPropertyAnimation@@6B@ 00091b5c     window.obj
 0002:00057b70       ??_R3QPropertyAnimation@@8 00091b70     window.obj
 0002:00057b80       ??_R2QPropertyAnimation@@8 00091b80     window.obj
 0002:00057b94       ??_R1A@?0A@EA@QVariantAnimation@@8 00091b94     window.obj
 0002:00057bb0       ??_R3QVariantAnimation@@8  00091bb0     window.obj
 0002:00057bc0       ??_R2QVariantAnimation@@8  00091bc0     window.obj
 0002:00057bd0       ??_R1A@?0A@EA@QAbstractAnimation@@8 00091bd0     window.obj
 0002:00057bec       ??_R3QAbstractAnimation@@8 00091bec     window.obj
 0002:00057bfc       ??_R2QAbstractAnimation@@8 00091bfc     window.obj
 0002:00057c08       ??_R1A@?0A@EA@QPropertyAnimation@@8 00091c08     window.obj
 0002:00057c24       ??_R4bad_alloc@std@@6B@    00091c24     window.obj
 0002:00057c38       ??_R3bad_alloc@std@@8      00091c38     window.obj
 0002:00057c48       ??_R2bad_alloc@std@@8      00091c48     window.obj
 0002:00057c54       ??_R1A@?0A@EA@exception@std@@8 00091c54     window.obj
 0002:00057c70       ??_R3exception@std@@8      00091c70     window.obj
 0002:00057c80       ??_R2exception@std@@8      00091c80     window.obj
 0002:00057c88       ??_R1A@?0A@EA@bad_alloc@std@@8 00091c88     window.obj
 0002:00057ca4       ??_R4FindNaviThread@Settings@@6B@ 00091ca4     settingmodel.obj
 0002:00057cb8       ??_R3FindNaviThread@Settings@@8 00091cb8     settingmodel.obj
 0002:00057cc8       ??_R2FindNaviThread@Settings@@8 00091cc8     settingmodel.obj
 0002:00057cd8       ??_R1A@?0A@EA@QThread@@8   00091cd8     settingmodel.obj
 0002:00057cf4       ??_R3QThread@@8            00091cf4     settingmodel.obj
 0002:00057d04       ??_R2QThread@@8            00091d04     settingmodel.obj
 0002:00057d10       ??_R1A@?0A@EA@FindNaviThread@Settings@@8 00091d10     settingmodel.obj
 0002:00057d2c       ??_R4NaviPathModel@Settings@@6B@ 00091d2c     settingmodel.obj
 0002:00057d40       ??_R3NaviPathModel@Settings@@8 00091d40     settingmodel.obj
 0002:00057d50       ??_R2NaviPathModel@Settings@@8 00091d50     settingmodel.obj
 0002:00057d60       ??_R1A@?0A@EA@NaviPathModel@Settings@@8 00091d60     settingmodel.obj
 0002:00057d7c       ??_R4VersionModel@Settings@@6B@ 00091d7c     settingmodel.obj
 0002:00057d90       ??_R3VersionModel@Settings@@8 00091d90     settingmodel.obj
 0002:00057da0       ??_R2VersionModel@Settings@@8 00091da0     settingmodel.obj
 0002:00057db0       ??_R1A@?0A@EA@VersionModel@Settings@@8 00091db0     settingmodel.obj
 0002:00057dcc       ??_R4WalkModel@Settings@@6B@ 00091dcc     settingmodel.obj
 0002:00057de0       ??_R3WalkModel@Settings@@8 00091de0     settingmodel.obj
 0002:00057df0       ??_R2WalkModel@Settings@@8 00091df0     settingmodel.obj
 0002:00057e04       ??_R1A@?0A@EA@QAbstractProxyModel@@8 00091e04     settingmodel.obj
 0002:00057e20       ??_R3QAbstractProxyModel@@8 00091e20     settingmodel.obj
 0002:00057e30       ??_R2QAbstractProxyModel@@8 00091e30     settingmodel.obj
 0002:00057e40       ??_R1A@?0A@EA@WalkModel@Settings@@8 00091e40     settingmodel.obj
 0002:00057e5c       ??_R4SettingModel@Settings@@6B@ 00091e5c     settingmodel.obj
 0002:00057e70       ??_R3SettingModel@Settings@@8 00091e70     settingmodel.obj
 0002:00057e80       ??_R2SettingModel@Settings@@8 00091e80     settingmodel.obj
 0002:00057e90       ??_R1A@?0A@EA@QAbstractItemModel@@8 00091e90     settingmodel.obj
 0002:00057eac       ??_R3QAbstractItemModel@@8 00091eac     settingmodel.obj
 0002:00057ebc       ??_R2QAbstractItemModel@@8 00091ebc     settingmodel.obj
 0002:00057ec8       ??_R1A@?0A@EA@SettingModel@Settings@@8 00091ec8     settingmodel.obj
 0002:00057ee4       ??_R4SlideSwitch@Settings@@6BQPaintDevice@@@ 00091ee4     slideswitch.obj
 0002:00057ef8       ??_R4SlideSwitch@Settings@@6BQObject@@@ 00091ef8     slideswitch.obj
 0002:00057f0c       ??_R3SlideSwitch@Settings@@8 00091f0c     slideswitch.obj
 0002:00057f1c       ??_R2SlideSwitch@Settings@@8 00091f1c     slideswitch.obj
 0002:00057f34       ??_R1A@?0A@EA@SlideSwitch@Settings@@8 00091f34     slideswitch.obj
 0002:00057f50       ??_R3BaseEditor@Settings@@8 00091f50     slideswitch.obj
 0002:00057f60       ??_R2BaseEditor@Settings@@8 00091f60     slideswitch.obj
 0002:00057f74       ??_R1A@?0A@EA@BaseEditor@Settings@@8 00091f74     slideswitch.obj
 0002:00057f90       ??_R4PageFactory@Settings@@6B@ 00091f90     pagefactory.obj
 0002:00057fa4       ??_R3PageFactory@Settings@@8 00091fa4     pagefactory.obj
 0002:00057fb4       ??_R2PageFactory@Settings@@8 00091fb4     pagefactory.obj
 0002:00057fc0       ??_R1A@?0A@EA@PageFactory@Settings@@8 00091fc0     pagefactory.obj
 0002:00057fdc       ??_R4WallpaperWidget@Settings@@6BQPaintDevice@@@ 00091fdc     wallpaperwidget.obj
 0002:00057ff0       ??_R4WallpaperWidget@Settings@@6BQObject@@@ 00091ff0     wallpaperwidget.obj
 0002:00058004       ??_R3WallpaperWidget@Settings@@8 00092004     wallpaperwidget.obj
 0002:00058014       ??_R2WallpaperWidget@Settings@@8 00092014     wallpaperwidget.obj
 0002:00058028       ??_R1A@?0A@EA@WallpaperWidget@Settings@@8 00092028     wallpaperwidget.obj
 0002:00058044       ??_R4LoadImgThread@Settings@@6B@ 00092044     wallpaperwidget.obj
 0002:00058058       ??_R3LoadImgThread@Settings@@8 00092058     wallpaperwidget.obj
 0002:00058068       ??_R2LoadImgThread@Settings@@8 00092068     wallpaperwidget.obj
 0002:00058078       ??_R1A@?0A@EA@LoadImgThread@Settings@@8 00092078     wallpaperwidget.obj
 0002:00058094       ??_R4QImage@@6B@           00092094     wallpaperwidget.obj
 0002:000580a8       ??_R3QImage@@8             000920a8     wallpaperwidget.obj
 0002:000580b8       ??_R2QImage@@8             000920b8     wallpaperwidget.obj
 0002:000580c4       ??_R1A@?0A@EA@QImage@@8    000920c4     wallpaperwidget.obj
 0002:000580e0       ??_R4PictureFlow@@6BQPaintDevice@@@ 000920e0     pictureflow.obj
 0002:000580f4       ??_R4PictureFlow@@6BQObject@@@ 000920f4     pictureflow.obj
 0002:00058108       ??_R3PictureFlow@@8        00092108     pictureflow.obj
 0002:00058118       ??_R2PictureFlow@@8        00092118     pictureflow.obj
 0002:0005812c       ??_R1A@?0A@EA@PictureFlow@@8 0009212c     pictureflow.obj
 0002:00058148       ??_R4DatetimeWidget@Settings@@6BQPaintDevice@@@ 00092148     datetimewidget.obj
 0002:0005815c       ??_R4DatetimeWidget@Settings@@6BQObject@@@ 0009215c     datetimewidget.obj
 0002:00058170       ??_R3DatetimeWidget@Settings@@8 00092170     datetimewidget.obj
 0002:00058180       ??_R2DatetimeWidget@Settings@@8 00092180     datetimewidget.obj
 0002:00058194       ??_R1A@?0A@EA@DatetimeWidget@Settings@@8 00092194     datetimewidget.obj
 0002:000581b0       ??_R4FormatSwitch@Settings@@6BQPaintDevice@@@ 000921b0     datetimewidget.obj
 0002:000581c4       ??_R4FormatSwitch@Settings@@6BQObject@@@ 000921c4     datetimewidget.obj
 0002:000581d8       ??_R3FormatSwitch@Settings@@8 000921d8     datetimewidget.obj
 0002:000581e8       ??_R2FormatSwitch@Settings@@8 000921e8     datetimewidget.obj
 0002:000581fc       ??_R1A@?0A@EA@FormatSwitch@Settings@@8 000921fc     datetimewidget.obj
 0002:00058218       ??_R4Button@?A0xd69e84ac@@6BQPaintDevice@@@ 00092218     comfirmbox.obj
 0002:0005822c       ??_R4Button@?A0xd69e84ac@@6BQObject@@@ 0009222c     comfirmbox.obj
 0002:00058240       ??_R3Button@?A0xd69e84ac@@8 00092240     comfirmbox.obj
 0002:00058250       ??_R2Button@?A0xd69e84ac@@8 00092250     comfirmbox.obj
 0002:00058268       ??_R1A@?0A@EA@QAbstractButton@@8 00092268     comfirmbox.obj
 0002:00058284       ??_R3QAbstractButton@@8    00092284     comfirmbox.obj
 0002:00058294       ??_R2QAbstractButton@@8    00092294     comfirmbox.obj
 0002:000582a8       ??_R1A@?0A@EA@Button@?A0xd69e84ac@@8 000922a8     comfirmbox.obj
 0002:000582c4       ??_R4ComfirmBox@Settings@@6BQPaintDevice@@@ 000922c4     comfirmbox.obj
 0002:000582d8       ??_R4ComfirmBox@Settings@@6BQObject@@@ 000922d8     comfirmbox.obj
 0002:000582ec       ??_R3ComfirmBox@Settings@@8 000922ec     comfirmbox.obj
 0002:000582fc       ??_R2ComfirmBox@Settings@@8 000922fc     comfirmbox.obj
 0002:00058310       ??_R1A@?0A@EA@ComfirmBox@Settings@@8 00092310     comfirmbox.obj
 0002:0005832c       ??_R4ResetWidget@Settings@@6BQPaintDevice@@@ 0009232c     resetwidget.obj
 0002:00058340       ??_R4ResetWidget@Settings@@6BQObject@@@ 00092340     resetwidget.obj
 0002:00058354       ??_R3ResetWidget@Settings@@8 00092354     resetwidget.obj
 0002:00058364       ??_R2ResetWidget@Settings@@8 00092364     resetwidget.obj
 0002:00058378       ??_R1A@?0A@EA@ResetWidget@Settings@@8 00092378     resetwidget.obj
 0002:00058394       ??_R4CalibraWidget@Settings@@6BQPaintDevice@@@ 00092394     calibrawidget.obj
 0002:000583a8       ??_R4CalibraWidget@Settings@@6BQObject@@@ 000923a8     calibrawidget.obj
 0002:000583bc       ??_R3CalibraWidget@Settings@@8 000923bc     calibrawidget.obj
 0002:000583cc       ??_R2CalibraWidget@Settings@@8 000923cc     calibrawidget.obj
 0002:000583e0       ??_R1A@?0A@EA@CalibraWidget@Settings@@8 000923e0     calibrawidget.obj
 0002:000583fc       ??_R4WheelKeyWidget@Settings@@6BQPaintDevice@@@ 000923fc     wheelkeywidget.obj
 0002:00058410       ??_R4WheelKeyWidget@Settings@@6BQObject@@@ 00092410     wheelkeywidget.obj
 0002:00058424       ??_R3WheelKeyWidget@Settings@@8 00092424     wheelkeywidget.obj
 0002:00058434       ??_R2WheelKeyWidget@Settings@@8 00092434     wheelkeywidget.obj
 0002:00058448       ??_R1A@?0A@EA@WheelKeyWidget@Settings@@8 00092448     wheelkeywidget.obj
 0002:00058464       ??_R4Flickable@Settings@@6B@ 00092464     flickable.obj
 0002:00058478       ??_R3Flickable@Settings@@8 00092478     flickable.obj
 0002:00058488       ??_R2Flickable@Settings@@8 00092488     flickable.obj
 0002:00058490       ??_R1A@?0A@EA@Flickable@Settings@@8 00092490     flickable.obj
 0002:000584ac       ??_R4FlickableTicker@Settings@@6B@ 000924ac     flickable.obj
 0002:000584c0       ??_R3FlickableTicker@Settings@@8 000924c0     flickable.obj
 0002:000584d0       ??_R2FlickableTicker@Settings@@8 000924d0     flickable.obj
 0002:000584dc       ??_R1A@?0A@EN@QObject@@8   000924dc     flickable.obj
 0002:000584f8       ??_R1A@?0A@EA@FlickableTicker@Settings@@8 000924f8     flickable.obj
 0002:00058514       ??_R4QMouseEvent@@6B@      00092514     flickable.obj
 0002:00058528       ??_R3QMouseEvent@@8        00092528     flickable.obj
 0002:00058538       ??_R2QMouseEvent@@8        00092538     flickable.obj
 0002:00058548       ??_R1A@?0A@EA@QInputEvent@@8 00092548     flickable.obj
 0002:00058564       ??_R3QInputEvent@@8        00092564     flickable.obj
 0002:00058574       ??_R2QInputEvent@@8        00092574     flickable.obj
 0002:00058580       ??_R1A@?0A@EA@QEvent@@8    00092580     flickable.obj
 0002:0005859c       ??_R3QEvent@@8             0009259c     flickable.obj
 0002:000585ac       ??_R2QEvent@@8             000925ac     flickable.obj
 0002:000585b4       ??_R1A@?0A@EA@QMouseEvent@@8 000925b4     flickable.obj
 0002:000585d0       ??_R4QEmptyListModel@Settings@@6B@ 000925d0     keyview.obj
 0002:000585e4       ??_R3QEmptyListModel@Settings@@8 000925e4     keyview.obj
 0002:000585f4       ??_R2QEmptyListModel@Settings@@8 000925f4     keyview.obj
 0002:00058604       ??_R1A@?0A@EA@QEmptyListModel@Settings@@8 00092604     keyview.obj
 0002:00058620       ??_R4KeyView@Settings@@6B@ 00092620     keyview.obj
 0002:00058634       ??_R4KeyView@Settings@@6BQPaintDevice@@@ 00092634     keyview.obj
 0002:00058648       ??_R4KeyView@Settings@@6BQObject@@@ 00092648     keyview.obj
 0002:0005865c       ??_R3KeyView@Settings@@8   0009265c     keyview.obj
 0002:0005866c       ??_R2KeyView@Settings@@8   0009266c     keyview.obj
 0002:00058684       ??_R1BE@?0A@EA@Flickable@Settings@@8 00092684     keyview.obj
 0002:000586a0       ??_R1A@?0A@EA@KeyView@Settings@@8 000926a0     keyview.obj
 0002:000586bc       ??_R4SliderWidget@Settings@@6BQPaintDevice@@@ 000926bc     slider.obj
 0002:000586d0       ??_R4SliderWidget@Settings@@6BQObject@@@ 000926d0     slider.obj
 0002:000586e4       ??_R3SliderWidget@Settings@@8 000926e4     slider.obj
 0002:000586f4       ??_R2SliderWidget@Settings@@8 000926f4     slider.obj
 0002:0005870c       ??_R1A@?0A@EA@SliderWidget@Settings@@8 0009270c     slider.obj
 0002:00058728       ??_R4ArthurStyle@Settings@@6B@ 00092728     slider.obj
 0002:0005873c       ??_R3ArthurStyle@Settings@@8 0009273c     slider.obj
 0002:0005874c       ??_R2ArthurStyle@Settings@@8 0009274c     slider.obj
 0002:00058760       ??_R1A@?0A@EA@QCommonStyle@@8 00092760     slider.obj
 0002:0005877c       ??_R3QCommonStyle@@8       0009277c     slider.obj
 0002:0005878c       ??_R2QCommonStyle@@8       0009278c     slider.obj
 0002:0005879c       ??_R1A@?0A@EA@QStyle@@8    0009279c     slider.obj
 0002:000587b8       ??_R3QStyle@@8             000927b8     slider.obj
 0002:000587c8       ??_R2QStyle@@8             000927c8     slider.obj
 0002:000587d4       ??_R1A@?0A@EA@ArthurStyle@Settings@@8 000927d4     slider.obj
 0002:000587f0       ??_R4QSlider@@6BQPaintDevice@@@ 000927f0     slider.obj
 0002:00058804       ??_R4QSlider@@6BQObject@@@ 00092804     slider.obj
 0002:00058818       ??_R3QSlider@@8            00092818     slider.obj
 0002:00058828       ??_R2QSlider@@8            00092828     slider.obj
 0002:00058840       ??_R1A@?0A@EA@QAbstractSlider@@8 00092840     slider.obj
 0002:0005885c       ??_R3QAbstractSlider@@8    0009285c     slider.obj
 0002:0005886c       ??_R2QAbstractSlider@@8    0009286c     slider.obj
 0002:00058880       ??_R1A@?0A@EA@QSlider@@8   00092880     slider.obj
 0002:0005889c       ??_R4QLabel@@6BQPaintDevice@@@ 0009289c     slider.obj
 0002:000588b0       ??_R4QLabel@@6BQObject@@@  000928b0     slider.obj
 0002:000588c4       ??_R3QLabel@@8             000928c4     slider.obj
 0002:000588d4       ??_R2QLabel@@8             000928d4     slider.obj
 0002:000588ec       ??_R1A@?0A@EA@QFrame@@8    000928ec     slider.obj
 0002:00058908       ??_R3QFrame@@8             00092908     slider.obj
 0002:00058918       ??_R2QFrame@@8             00092918     slider.obj
 0002:0005892c       ??_R1A@?0A@EA@QLabel@@8    0009292c     slider.obj
 0002:00058948       ??_R4NumberPicker@Settings@@6BQPaintDevice@@@ 00092948     numberpicker.obj
 0002:0005895c       ??_R4NumberPicker@Settings@@6BQObject@@@ 0009295c     numberpicker.obj
 0002:00058970       ??_R3NumberPicker@Settings@@8 00092970     numberpicker.obj
 0002:00058980       ??_R2NumberPicker@Settings@@8 00092980     numberpicker.obj
 0002:00058998       ??_R1A@?0A@EA@NumberPicker@Settings@@8 00092998     numberpicker.obj
 0002:000589b4       ??_R4VSpinBox@Settings@@6BQPaintDevice@@@ 000929b4     numberpicker.obj
 0002:000589c8       ??_R4VSpinBox@Settings@@6BQObject@@@ 000929c8     numberpicker.obj
 0002:000589dc       ??_R3VSpinBox@Settings@@8  000929dc     numberpicker.obj
 0002:000589ec       ??_R2VSpinBox@Settings@@8  000929ec     numberpicker.obj
 0002:00058a00       ??_R1A@?0A@EA@VSpinBox@Settings@@8 00092a00     numberpicker.obj
 0002:00058a1c       ??_R4CommonWindow@common@@6BQPaintDevice@@@ 00092a1c     common:commonwindow.obj
 0002:00058a30       ??_R4CommonWindow@common@@6BQObject@@@ 00092a30     common:commonwindow.obj
 0002:00058a44       ??_R4QTranslator@@6B@      00092a44     common:commonwindow.obj
 0002:00058a58       ??_R3QTranslator@@8        00092a58     common:commonwindow.obj
 0002:00058a68       ??_R2QTranslator@@8        00092a68     common:commonwindow.obj
 0002:00058a74       ??_R1A@?0A@EA@QTranslator@@8 00092a74     common:commonwindow.obj
 0002:00058a90       ??_R4PushButton@common@@6BQPaintDevice@@@ 00092a90     common:button.obj
 0002:00058aa4       ??_R4PushButton@common@@6BQObject@@@ 00092aa4     common:button.obj
 0002:00058ab8       ??_R3PushButton@common@@8  00092ab8     common:button.obj
 0002:00058ac8       ??_R2PushButton@common@@8  00092ac8     common:button.obj
 0002:00058ae0       ??_R1A@?0A@EA@PushButton@common@@8 00092ae0     common:button.obj
 0002:00058afc       ??_R4AbstractButton@common@@6BQPaintDevice@@@ 00092afc     common:button.obj
 0002:00058b10       ??_R4AbstractButton@common@@6BQObject@@@ 00092b10     common:button.obj
 0002:00058b24       ??_R3AbstractButton@common@@8 00092b24     common:button.obj
 0002:00058b34       ??_R2AbstractButton@common@@8 00092b34     common:button.obj
 0002:00058b48       ??_R1A@?0A@EA@AbstractButton@common@@8 00092b48     common:button.obj
 0002:00058b64       ??_R4ButtonGroup@common@@6B@ 00092b64     common:button.obj
 0002:00058b78       ??_R3ButtonGroup@common@@8 00092b78     common:button.obj
 0002:00058b88       ??_R2ButtonGroup@common@@8 00092b88     common:button.obj
 0002:00058b94       ??_R1A@?0A@EA@ButtonGroup@common@@8 00092b94     common:button.obj
 0002:00058bb0       ??_R4Toolbar@common@@6BQPaintDevice@@@ 00092bb0     common:toolbar.obj
 0002:00058bc4       ??_R4Toolbar@common@@6BQObject@@@ 00092bc4     common:toolbar.obj
 0002:00058bd8       ??_R3Toolbar@common@@8     00092bd8     common:toolbar.obj
 0002:00058be8       ??_R2Toolbar@common@@8     00092be8     common:toolbar.obj
 0002:00058bfc       ??_R1A@?0A@EA@Toolbar@common@@8 00092bfc     common:toolbar.obj
 0002:00058c18       ??_R4MouseCapture@common@@6B@ 00092c18     common:mousecapture.obj
 0002:00058c2c       ??_R3MouseCapture@common@@8 00092c2c     common:mousecapture.obj
 0002:00058c3c       ??_R2MouseCapture@common@@8 00092c3c     common:mousecapture.obj
 0002:00058c48       ??_R1A@?0A@EA@MouseCapture@common@@8 00092c48     common:mousecapture.obj
 0002:00058c64       ??_R4TitleBar@common@@6BQPaintDevice@@@ 00092c64     common:titlebar.obj
 0002:00058c78       ??_R4TitleBar@common@@6BQObject@@@ 00092c78     common:titlebar.obj
 0002:00058c8c       ??_R3TitleBar@common@@8    00092c8c     common:titlebar.obj
 0002:00058c9c       ??_R2TitleBar@common@@8    00092c9c     common:titlebar.obj
 0002:00058cb0       ??_R1A@?0A@EA@TitleBar@common@@8 00092cb0     common:titlebar.obj
 0002:00058d1c       _TI3?AVlength_error@std@@  00092d1c     libcpmt:string.obj
 0002:00058d2c       _CTA3?AVlength_error@std@@ 00092d2c     libcpmt:string.obj
 0002:00058d3c       _CT??_R0?AVlength_error@std@@@8??0length_error@std@@QAA@ABV01@@Z40 00092d3c     libcpmt:string.obj
 0002:00058d58       _CT??_R0?AVlogic_error@std@@@8??0logic_error@std@@QAA@ABV01@@Z40 00092d58     libcpmt:string.obj
 0002:00058d74       _TI3?AVout_of_range@std@@  00092d74     libcpmt:string.obj
 0002:00058d84       _CTA3?AVout_of_range@std@@ 00092d84     libcpmt:string.obj
 0002:00058d94       _CT??_R0?AVout_of_range@std@@@8??0out_of_range@std@@QAA@ABV01@@Z40 00092d94     libcpmt:string.obj
 0002:00058db0       _CT??_R0?AVexception@std@@@8??0exception@std@@QAA@ABV01@@Z12 00092db0     window.obj
 0002:00058dcc       _CT??_R0?AVbad_alloc@std@@@8??0bad_alloc@std@@QAA@ABV01@@Z12 00092dcc     window.obj
 0002:00058de8       _CTA2?AVbad_alloc@std@@    00092de8     window.obj
 0002:00058df4       _TI2?AVbad_alloc@std@@     00092df4     window.obj
 0002:00058e04       __IMPORT_DESCRIPTOR_COREDLL 00092e04     corelibc:COREDLL.dll
 0002:00058e18       __IMPORT_DESCRIPTOR_QtGui4 00092e18     QtGui4:QtGui4.dll
 0002:00058e2c       __IMPORT_DESCRIPTOR_QtCore4 00092e2c     QtCore4:QtCore4.dll
 0002:00058e40       __IMPORT_DESCRIPTOR_msvcr80 00092e40     MSVCRT:msvcr80.dll
 0002:00058e54       __NULL_IMPORT_DESCRIPTOR   00092e54     corelibc:COREDLL.dll
 0003:00000000       __imp_??3@YAXPAX@Z         0009a000     corelibc:COREDLL.dll
 0003:00000004       __imp_??_7type_info@@6B@   0009a004     corelibc:COREDLL.dll
 0003:00000008       __imp_??2@YAPAXI@Z         0009a008     corelibc:COREDLL.dll
 0003:0000000c       __imp_memmove_s            0009a00c     corelibc:COREDLL.dll
 0003:00000010       __imp_?what@exception@std@@UBAPBDXZ 0009a010     corelibc:COREDLL.dll
 0003:00000014       __imp_??1exception@std@@UAA@XZ 0009a014     corelibc:COREDLL.dll
 0003:00000018       __imp_??0exception@std@@QAA@PBD@Z 0009a018     corelibc:COREDLL.dll
 0003:0000001c       __imp_??0exception@std@@QAA@ABV01@@Z 0009a01c     corelibc:COREDLL.dll
 0003:00000020       __imp_memcpy_s             0009a020     corelibc:COREDLL.dll
 0003:00000024       __imp__purecall            0009a024     corelibc:COREDLL.dll
 0003:00000028       __imp___report_gsfailure   0009a028     corelibc:COREDLL.dll
 0003:0000002c       __imp_realloc              0009a02c     corelibc:COREDLL.dll
 0003:00000030       __imp_malloc               0009a030     corelibc:COREDLL.dll
 0003:00000034       __imp__msize               0009a034     corelibc:COREDLL.dll
 0003:00000038       __imp__XcptFilter          0009a038     corelibc:COREDLL.dll
 0003:0000003c       __imp___C_specific_handler 0009a03c     corelibc:COREDLL.dll
 0003:00000040       __imp___security_gen_cookie2 0009a040     corelibc:COREDLL.dll
 0003:00000044       __imp_free                 0009a044     corelibc:COREDLL.dll
 0003:00000048       __imp_RegQueryValueExW     0009a048     coredll:COREDLL.dll
 0003:0000004c       __imp_Sleep                0009a04c     coredll:COREDLL.dll
 0003:00000050       __imp_RegOpenKeyExW        0009a050     coredll:COREDLL.dll
 0003:00000054       __imp_CloseHandle          0009a054     coredll:COREDLL.dll
 0003:00000058       __imp_SetLocalTime         0009a058     coredll:COREDLL.dll
 0003:0000005c       __imp_SendMessageW         0009a05c     coredll:COREDLL.dll
 0003:00000060       __imp_FindWindowW          0009a060     coredll:COREDLL.dll
 0003:00000064       __imp_GetLocalTime         0009a064     coredll:COREDLL.dll
 0003:00000068       __imp_RegisterWindowMessageW 0009a068     coredll:COREDLL.dll
 0003:0000006c       __imp_FreeLibrary          0009a06c     coredll:COREDLL.dll
 0003:00000070       __imp_LoadLibraryW         0009a070     coredll:COREDLL.dll
 0003:00000074       __imp_GetProcAddressW      0009a074     coredll:COREDLL.dll
 0003:00000078       __imp_InterlockedCompareExchange 0009a078     coredll:COREDLL.dll
 0003:0000007c       __imp_TerminateProcess     0009a07c     coredll:COREDLL.dll
 0003:00000080       __imp___rt_sdiv64by64      0009a080     corelibc:COREDLL.dll
 0003:00000084       __imp___rt_sdiv            0009a084     corelibc:COREDLL.dll
 0003:00000088       __imp_strcmp               0009a088     corelibc:COREDLL.dll
 0003:0000008c       __imp_AddVectoredExceptionHandler 0009a08c     coredll:COREDLL.dll
 0003:00000090       __imp_SetLastError         0009a090     coredll:COREDLL.dll
 0003:00000094       __imp_GetThreadCallStack   0009a094     coredll:COREDLL.dll
 0003:00000098       __imp_PostMessageW         0009a098     coredll:COREDLL.dll
 0003:0000009c       __imp_NKDbgPrintfW         0009a09c     coredll:COREDLL.dll
 0003:000000a0       __imp_SetForegroundWindow  0009a0a0     coredll:COREDLL.dll
 0003:000000a4       __imp_GetLastError         0009a0a4     coredll:COREDLL.dll
 0003:000000a8       __imp_GetModuleFileNameW   0009a0a8     coredll:COREDLL.dll
 0003:000000ac       __imp_CreateMutexW         0009a0ac     coredll:COREDLL.dll
 0003:000000b0       __imp_GetCommandLineW      0009a0b0     coredll:COREDLL.dll
 0003:000000b4       __imp_??0exception@std@@QAA@XZ 0009a0b4     corelibc:COREDLL.dll
 0003:000000b8       __imp___CxxThrowException  0009a0b8     corelibc:COREDLL.dll
 0003:000000bc       __imp___rt_udiv            0009a0bc     corelibc:COREDLL.dll
 0003:000000c0       __imp_strlen               0009a0c0     corelibc:COREDLL.dll
 0003:000000c4       __imp_memcpy               0009a0c4     corelibc:COREDLL.dll
 0003:000000c8       __imp___itos               0009a0c8     corelibc:COREDLL.dll
 0003:000000cc       \177COREDLL_NULL_THUNK_DATA 0009a0cc     corelibc:COREDLL.dll
 0003:000000d0       __imp_?adjusted@QRect@@QBA?AV1@HHHH@Z 0009a0d0     QtCore4:QtCore4.dll
 0003:000000d4       __imp_?parent@QObject@@QBAPAV1@XZ 0009a0d4     QtCore4:QtCore4.dll
 0003:000000d8       __imp_?isWidgetType@QObject@@QBA_NXZ 0009a0d8     QtCore4:QtCore4.dll
 0003:000000dc       __imp_?shared_null@QMapData@@2U1@A 0009a0dc     QtCore4:QtCore4.dll
 0003:000000e0       __imp_?addGuard@QMetaObject@@SAXPAPAVQObject@@@Z 0009a0e0     QtCore4:QtCore4.dll
 0003:000000e4       __imp_?removeGuard@QMetaObject@@SAXPAPAVQObject@@@Z 0009a0e4     QtCore4:QtCore4.dll
 0003:000000e8       __imp_?changeGuard@QMetaObject@@SAXPAPAVQObject@@PAV2@@Z 0009a0e8     QtCore4:QtCore4.dll
 0003:000000ec       __imp_?flush@QCoreApplication@@SAXXZ 0009a0ec     QtCore4:QtCore4.dll
 0003:000000f0       __imp_?qt_qFindChildren_helper@@YAXPBVQObject@@ABVQString@@PBVQRegExp@@ABUQMetaObject@@PAV?$QList@PAX@@@Z 0009a0f0     QtCore4:QtCore4.dll
 0003:000000f4       __imp_?createData@QMapData@@SAPAU1@H@Z 0009a0f4     QtCore4:QtCore4.dll
 0003:000000f8       __imp_?continueFreeData@QMapData@@QAAXH@Z 0009a0f8     QtCore4:QtCore4.dll
 0003:000000fc       __imp_?node_create@QMapData@@QAAPAUNode@1@QAPAU21@HH@Z 0009a0fc     QtCore4:QtCore4.dll
 0003:00000100       __imp_?node_delete@QMapData@@QAAXQAPAUNode@1@HPAU21@@Z 0009a100     QtCore4:QtCore4.dll
 0003:00000104       __imp_?metaObject@QTranslator@@UBAPBUQMetaObject@@XZ 0009a104     QtCore4:QtCore4.dll
 0003:00000108       __imp_?qt_metacast@QTranslator@@UAAPAXPBD@Z 0009a108     QtCore4:QtCore4.dll
 0003:0000010c       __imp_?qt_metacall@QTranslator@@UAAHW4Call@QMetaObject@@HPAPAX@Z 0009a10c     QtCore4:QtCore4.dll
 0003:00000110       __imp_??0QTranslator@@QAA@PAVQObject@@@Z 0009a110     QtCore4:QtCore4.dll
 0003:00000114       __imp_??1QTranslator@@UAA@XZ 0009a114     QtCore4:QtCore4.dll
 0003:00000118       __imp_?translate@QTranslator@@UBA?AVQString@@PBD00@Z 0009a118     QtCore4:QtCore4.dll
 0003:0000011c       __imp_?isEmpty@QTranslator@@UBA_NXZ 0009a11c     QtCore4:QtCore4.dll
 0003:00000120       __imp_?load@QTranslator@@QAA_NABVQString@@000@Z 0009a120     QtCore4:QtCore4.dll
 0003:00000124       __imp_?installTranslator@QCoreApplication@@SAXPAVQTranslator@@@Z 0009a124     QtCore4:QtCore4.dll
 0003:00000128       __imp_?removeTranslator@QCoreApplication@@SAXPAVQTranslator@@@Z 0009a128     QtCore4:QtCore4.dll
 0003:0000012c       __imp_?removeEventFilter@QObject@@QAAXPAV1@@Z 0009a12c     QtCore4:QtCore4.dll
 0003:00000130       __imp_?data@QByteArray@@QAAPADXZ 0009a130     QtCore4:QtCore4.dll
 0003:00000134       __imp_?qWinMain@@YAXPAUHINSTANCE__@@0PADHAAHAAV?$QVector@PAD@@@Z 0009a134     QtCore4:QtCore4.dll
 0003:00000138       __imp_?arg@QString@@QBA?AV1@ABV1@HABVQChar@@@Z 0009a138     QtCore4:QtCore4.dll
 0003:0000013c       __imp_?toLower@QString@@QBA?AV1@XZ 0009a13c     QtCore4:QtCore4.dll
 0003:00000140       __imp_?replace@QString@@QAAAAV1@ABVQLatin1String@@0W4CaseSensitivity@Qt@@@Z 0009a140     QtCore4:QtCore4.dll
 0003:00000144       __imp_?utf16@QString@@QBAPBGXZ 0009a144     QtCore4:QtCore4.dll
 0003:00000148       __imp_?toLocal8Bit@QString@@QBA?AVQByteArray@@XZ 0009a148     QtCore4:QtCore4.dll
 0003:0000014c       __imp_?number@QString@@SA?AV1@IH@Z 0009a14c     QtCore4:QtCore4.dll
 0003:00000150       __imp_?prepend@QByteArray@@QAAAAV1@ABV1@@Z 0009a150     QtCore4:QtCore4.dll
 0003:00000154       __imp_?qUnregisterResourceData@@YA_NHPBE00@Z 0009a154     QtCore4:QtCore4.dll
 0003:00000158       __imp_?qRegisterResourceData@@YA_NHPBE00@Z 0009a158     QtCore4:QtCore4.dll
 0003:0000015c       __imp_?staticMetaObject@QObject@@2UQMetaObject@@B 0009a15c     QtCore4:QtCore4.dll
 0003:00000160       __imp_?staticMetaObject@QAbstractItemModel@@2UQMetaObject@@B 0009a160     QtCore4:QtCore4.dll
 0003:00000164       __imp_?staticMetaObject@QThread@@2UQMetaObject@@B 0009a164     QtCore4:QtCore4.dll
 0003:00000168       __imp_?qt_metacast@QThread@@UAAPAXPBD@Z 0009a168     QtCore4:QtCore4.dll
 0003:0000016c       __imp_?qt_metacall@QThread@@UAAHW4Call@QMetaObject@@HPAPAX@Z 0009a16c     QtCore4:QtCore4.dll
 0003:00000170       __imp_?activate@QMetaObject@@SAXPAVQObject@@PBU1@HPAPAX@Z 0009a170     QtCore4:QtCore4.dll
 0003:00000174       __imp_?metaObject@QAbstractItemModel@@UBAPBUQMetaObject@@XZ 0009a174     QtCore4:QtCore4.dll
 0003:00000178       __imp_?qt_metacast@QAbstractItemModel@@UAAPAXPBD@Z 0009a178     QtCore4:QtCore4.dll
 0003:0000017c       __imp_?qt_metacall@QAbstractItemModel@@UAAHW4Call@QMetaObject@@HPAPAX@Z 0009a17c     QtCore4:QtCore4.dll
 0003:00000180       __imp_?flags@QAbstractItemModel@@UBA?AV?$QFlags@W4ItemFlag@Qt@@@@ABVQModelIndex@@@Z 0009a180     QtCore4:QtCore4.dll
 0003:00000184       __imp_??_0QPoint@@QAAAAV0@M@Z 0009a184     QtCore4:QtCore4.dll
 0003:00000188       __imp_?currentTime@QTime@@SA?AV1@XZ 0009a188     QtCore4:QtCore4.dll
 0003:0000018c       __imp_?postEvent@QCoreApplication@@SAXPAVQObject@@PAVQEvent@@@Z 0009a18c     QtCore4:QtCore4.dll
 0003:00000190       __imp_?remove@QListData@@QAAXH@Z 0009a190     QtCore4:QtCore4.dll
 0003:00000194       __imp_?metaObject@QObject@@UBAPBUQMetaObject@@XZ 0009a194     QtCore4:QtCore4.dll
 0003:00000198       __imp_?qt_metacast@QObject@@UAAPAXPBD@Z 0009a198     QtCore4:QtCore4.dll
 0003:0000019c       __imp_?qt_metacall@QObject@@UAAHW4Call@QMetaObject@@HPAPAX@Z 0009a19c     QtCore4:QtCore4.dll
 0003:000001a0       __imp_?toLatin1@QString@@QBA?AVQByteArray@@XZ 0009a1a0     QtCore4:QtCore4.dll
 0003:000001a4       __imp_?translate@QCoreApplication@@SA?AVQString@@PBD00W4Encoding@1@@Z 0009a1a4     QtCore4:QtCore4.dll
 0003:000001a8       __imp_?qHash@@YAIABVQString@@@Z 0009a1a8     QtCore4:QtCore4.dll
 0003:000001ac       __imp_?sendEvent@QCoreApplication@@SA_NPAVQObject@@PAVQEvent@@@Z 0009a1ac     QtCore4:QtCore4.dll
 0003:000001b0       __imp_??0QEvent@@QAA@W4Type@0@@Z 0009a1b0     QtCore4:QtCore4.dll
 0003:000001b4       __imp_??1QEvent@@UAA@XZ    0009a1b4     QtCore4:QtCore4.dll
 0003:000001b8       __imp_?section@QString@@QBA?AV1@VQChar@@HHV?$QFlags@W4SectionFlag@QString@@@@@Z 0009a1b8     QtCore4:QtCore4.dll
 0003:000001bc       __imp_??0QVariant@@QAA@PBD@Z 0009a1bc     QtCore4:QtCore4.dll
 0003:000001c0       __imp_?hour@QTime@@QBAHXZ  0009a1c0     QtCore4:QtCore4.dll
 0003:000001c4       __imp_?minute@QTime@@QBAHXZ 0009a1c4     QtCore4:QtCore4.dll
 0003:000001c8       __imp_?year@QDate@@QBAHXZ  0009a1c8     QtCore4:QtCore4.dll
 0003:000001cc       __imp_?month@QDate@@QBAHXZ 0009a1cc     QtCore4:QtCore4.dll
 0003:000001d0       __imp_?day@QDate@@QBAHXZ   0009a1d0     QtCore4:QtCore4.dll
 0003:000001d4       __imp_?daysInMonth@QDate@@QBAHXZ 0009a1d4     QtCore4:QtCore4.dll
 0003:000001d8       __imp_?killTimer@QObject@@QAAXH@Z 0009a1d8     QtCore4:QtCore4.dll
 0003:000001dc       __imp_??0QDateTime@@QAA@XZ 0009a1dc     QtCore4:QtCore4.dll
 0003:000001e0       __imp_??1QDateTime@@QAA@XZ 0009a1e0     QtCore4:QtCore4.dll
 0003:000001e4       __imp_??4QDateTime@@QAAAAV0@ABV0@@Z 0009a1e4     QtCore4:QtCore4.dll
 0003:000001e8       __imp_?isNull@QDateTime@@QBA_NXZ 0009a1e8     QtCore4:QtCore4.dll
 0003:000001ec       __imp_?date@QDateTime@@QBA?AVQDate@@XZ 0009a1ec     QtCore4:QtCore4.dll
 0003:000001f0       __imp_?time@QDateTime@@QBA?AVQTime@@XZ 0009a1f0     QtCore4:QtCore4.dll
 0003:000001f4       __imp_?toString@QDateTime@@QBA?AVQString@@ABV2@@Z 0009a1f4     QtCore4:QtCore4.dll
 0003:000001f8       __imp_?addDays@QDateTime@@QBA?AV1@H@Z 0009a1f8     QtCore4:QtCore4.dll
 0003:000001fc       __imp_?addMonths@QDateTime@@QBA?AV1@H@Z 0009a1fc     QtCore4:QtCore4.dll
 0003:00000200       __imp_?addYears@QDateTime@@QBA?AV1@H@Z 0009a200     QtCore4:QtCore4.dll
 0003:00000204       __imp_?addSecs@QDateTime@@QBA?AV1@H@Z 0009a204     QtCore4:QtCore4.dll
 0003:00000208       __imp_?currentDateTime@QDateTime@@SA?AV1@XZ 0009a208     QtCore4:QtCore4.dll
 0003:0000020c       __imp_??0QChar@@QAA@UQLatin1Char@@@Z 0009a20c     QtCore4:QtCore4.dll
 0003:00000210       __imp_?arg@QString@@QBA?AV1@HHHABVQChar@@@Z 0009a210     QtCore4:QtCore4.dll
 0003:00000214       __imp_?start@QTime@@QAAXXZ 0009a214     QtCore4:QtCore4.dll
 0003:00000218       __imp_?restart@QTime@@QAAHXZ 0009a218     QtCore4:QtCore4.dll
 0003:0000021c       __imp_?elapsed@QTime@@QBAHXZ 0009a21c     QtCore4:QtCore4.dll
 0003:00000220       __imp_??0QTimer@@QAA@PAVQObject@@@Z 0009a220     QtCore4:QtCore4.dll
 0003:00000224       __imp_??1QTimer@@UAA@XZ    0009a224     QtCore4:QtCore4.dll
 0003:00000228       __imp_?setInterval@QTimer@@QAAXH@Z 0009a228     QtCore4:QtCore4.dll
 0003:0000022c       __imp_?start@QTimer@@QAAXXZ 0009a22c     QtCore4:QtCore4.dll
 0003:00000230       __imp_??0QObject@@QAA@PAV0@@Z 0009a230     QtCore4:QtCore4.dll
 0003:00000234       __imp_??1QObject@@UAA@XZ   0009a234     QtCore4:QtCore4.dll
 0003:00000238       __imp_??4QString@@QAAAAV0@PBD@Z 0009a238     QtCore4:QtCore4.dll
 0003:0000023c       __imp_?shared_null@QString@@0UData@1@A 0009a23c     QtCore4:QtCore4.dll
 0003:00000240       __imp_?applicationDirPath@QCoreApplication@@SA?AVQString@@XZ 0009a240     QtCore4:QtCore4.dll
 0003:00000244       __imp_??YQString@@QAAAAV0@ABV0@@Z 0009a244     QtCore4:QtCore4.dll
 0003:00000248       __imp_??0QString@@QAA@ABV0@@Z 0009a248     QtCore4:QtCore4.dll
 0003:0000024c       __imp_??9QModelIndex@@QBA_NABV0@@Z 0009a24c     QtCore4:QtCore4.dll
 0003:00000250       __imp_??0QModelIndex@@AAA@HHPAXPBVQAbstractItemModel@@@Z 0009a250     QtCore4:QtCore4.dll
 0003:00000254       __imp_?sibling@QModelIndex@@QBA?AV1@HH@Z 0009a254     QtCore4:QtCore4.dll
 0003:00000258       __imp_??BQXmlStreamStringRef@@QBA?AVQStringRef@@XZ 0009a258     QtCore4:QtCore4.dll
 0003:0000025c       __imp_?name@QXmlStreamAttribute@@QBA?AVQStringRef@@XZ 0009a25c     QtCore4:QtCore4.dll
 0003:00000260       __imp_?value@QXmlStreamAttribute@@QBA?AVQStringRef@@XZ 0009a260     QtCore4:QtCore4.dll
 0003:00000264       __imp_?isStartElement@QXmlStreamReader@@QBA_NXZ 0009a264     QtCore4:QtCore4.dll
 0003:00000268       __imp_?isEndElement@QXmlStreamReader@@QBA_NXZ 0009a268     QtCore4:QtCore4.dll
 0003:0000026c       __imp_??1QXmlStreamAttributes@@QAA@XZ 0009a26c     QtCore4:QtCore4.dll
 0003:00000270       __imp_??0QXmlStreamAttributes@@QAA@ABV0@@Z 0009a270     QtCore4:QtCore4.dll
 0003:00000274       __imp_??0QVariant@@QAA@ABVQLatin1String@@@Z 0009a274     QtCore4:QtCore4.dll
 0003:00000278       __imp_??0QVariant@@QAA@ABVQString@@@Z 0009a278     QtCore4:QtCore4.dll
 0003:0000027c       __imp_??0QVariant@@QAA@ABV0@@Z 0009a27c     QtCore4:QtCore4.dll
 0003:00000280       __imp_?cmp@QVariant@@IBA_NABV1@@Z 0009a280     QtCore4:QtCore4.dll
 0003:00000284       __imp_?codecForCStrings@QString@@0PAVQTextCodec@@A 0009a284     QtCore4:QtCore4.dll
 0003:00000288       __imp_??0QSettings@@QAA@W4Format@0@W4Scope@0@ABVQString@@2PAVQObject@@@Z 0009a288     QtCore4:QtCore4.dll
 0003:0000028c       __imp_??1QSettings@@UAA@XZ 0009a28c     QtCore4:QtCore4.dll
 0003:00000290       __imp_?sync@QSettings@@QAAXXZ 0009a290     QtCore4:QtCore4.dll
 0003:00000294       __imp_?setValue@QSettings@@QAAXABVQString@@ABVQVariant@@@Z 0009a294     QtCore4:QtCore4.dll
 0003:00000298       __imp_?value@QSettings@@QBA?AVQVariant@@ABVQString@@ABV2@@Z 0009a298     QtCore4:QtCore4.dll
 0003:0000029c       __imp_??0QXmlStreamReader@@QAA@ABVQByteArray@@@Z 0009a29c     QtCore4:QtCore4.dll
 0003:000002a0       __imp_??1QXmlStreamReader@@QAA@XZ 0009a2a0     QtCore4:QtCore4.dll
 0003:000002a4       __imp_?atEnd@QXmlStreamReader@@QBA_NXZ 0009a2a4     QtCore4:QtCore4.dll
 0003:000002a8       __imp_?readNext@QXmlStreamReader@@QAA?AW4TokenType@1@XZ 0009a2a8     QtCore4:QtCore4.dll
 0003:000002ac       __imp_?attributes@QXmlStreamReader@@QBA?AVQXmlStreamAttributes@@XZ 0009a2ac     QtCore4:QtCore4.dll
 0003:000002b0       __imp_?name@QXmlStreamReader@@QBA?AVQStringRef@@XZ 0009a2b0     QtCore4:QtCore4.dll
 0003:000002b4       __imp_?toString@QStringRef@@QBA?AVQString@@XZ 0009a2b4     QtCore4:QtCore4.dll
 0003:000002b8       __imp_??0QFileInfo@@QAA@ABV0@@Z 0009a2b8     QtCore4:QtCore4.dll
 0003:000002bc       __imp_??1QFileInfo@@QAA@XZ 0009a2bc     QtCore4:QtCore4.dll
 0003:000002c0       __imp_?filePath@QFileInfo@@QBA?AVQString@@XZ 0009a2c0     QtCore4:QtCore4.dll
 0003:000002c4       __imp_?absoluteFilePath@QFileInfo@@QBA?AVQString@@XZ 0009a2c4     QtCore4:QtCore4.dll
 0003:000002c8       __imp_??0QFile@@QAA@ABVQString@@@Z 0009a2c8     QtCore4:QtCore4.dll
 0003:000002cc       __imp_??1QFile@@UAA@XZ     0009a2cc     QtCore4:QtCore4.dll
 0003:000002d0       __imp_?open@QFile@@UAA_NV?$QFlags@W4OpenModeFlag@QIODevice@@@@@Z 0009a2d0     QtCore4:QtCore4.dll
 0003:000002d4       __imp_?close@QFile@@UAAXXZ 0009a2d4     QtCore4:QtCore4.dll
 0003:000002d8       __imp_?qFree@@YAXPAX@Z     0009a2d8     QtCore4:QtCore4.dll
 0003:000002dc       __imp_?remove@QString@@QAAAAV1@VQChar@@W4CaseSensitivity@Qt@@@Z 0009a2dc     QtCore4:QtCore4.dll
 0003:000002e0       __imp_?replace@QString@@QAAAAV1@VQChar@@0W4CaseSensitivity@Qt@@@Z 0009a2e0     QtCore4:QtCore4.dll
 0003:000002e4       __imp_?fromAscii@QString@@SA?AV1@PBDH@Z 0009a2e4     QtCore4:QtCore4.dll
 0003:000002e8       __imp_?fromWCharArray@QString@@SA?AV1@PBGH@Z 0009a2e8     QtCore4:QtCore4.dll
 0003:000002ec       __imp_??8QString@@QBA_NABVQLatin1String@@@Z 0009a2ec     QtCore4:QtCore4.dll
 0003:000002f0       __imp_??8QString@@QBA_NABV0@@Z 0009a2f0     QtCore4:QtCore4.dll
 0003:000002f4       __imp_?readAll@QIODevice@@QAA?AVQByteArray@@XZ 0009a2f4     QtCore4:QtCore4.dll
 0003:000002f8       __imp_?shared_null@QListData@@2UData@1@A 0009a2f8     QtCore4:QtCore4.dll
 0003:000002fc       __imp_??8@YA_NABVQLatin1String@@ABVQStringRef@@@Z 0009a2fc     QtCore4:QtCore4.dll
 0003:00000300       __imp_??8@YA_NABVQString@@ABVQStringRef@@@Z 0009a300     QtCore4:QtCore4.dll
 0003:00000304       __imp_??0QDir@@QAA@ABVQString@@@Z 0009a304     QtCore4:QtCore4.dll
 0003:00000308       __imp_??1QDir@@QAA@XZ      0009a308     QtCore4:QtCore4.dll
 0003:0000030c       __imp_?toNativeSeparators@QDir@@SA?AVQString@@ABV2@@Z 0009a30c     QtCore4:QtCore4.dll
 0003:00000310       __imp_?setFilter@QDir@@QAAXV?$QFlags@W4Filter@QDir@@@@@Z 0009a310     QtCore4:QtCore4.dll
 0003:00000314       __imp_?entryInfoList@QDir@@QBA?AV?$QList@VQFileInfo@@@@ABVQStringList@@V?$QFlags@W4Filter@QDir@@@@V?$QFlags@W4SortFlag@QDir@@@@@Z 0009a314     QtCore4:QtCore4.dll
 0003:00000318       __imp_?entryInfoList@QDir@@QBA?AV?$QList@VQFileInfo@@@@V?$QFlags@W4Filter@QDir@@@@V?$QFlags@W4SortFlag@QDir@@@@@Z 0009a318     QtCore4:QtCore4.dll
 0003:0000031c       __imp_?exists@QDir@@QBA_NXZ 0009a31c     QtCore4:QtCore4.dll
 0003:00000320       __imp_?detach3@QListData@@QAAPAUData@1@XZ 0009a320     QtCore4:QtCore4.dll
 0003:00000324       __imp_?append@QListData@@QAAPAPAXXZ 0009a324     QtCore4:QtCore4.dll
 0003:00000328       __imp_??0QThread@@QAA@PAVQObject@@@Z 0009a328     QtCore4:QtCore4.dll
 0003:0000032c       __imp_??1QThread@@UAA@XZ   0009a32c     QtCore4:QtCore4.dll
 0003:00000330       __imp_?start@QThread@@QAAXW4Priority@1@@Z 0009a330     QtCore4:QtCore4.dll
 0003:00000334       __imp_?event@QObject@@UAA_NPAVQEvent@@@Z 0009a334     QtCore4:QtCore4.dll
 0003:00000338       __imp_??0QAbstractItemModel@@QAA@PAVQObject@@@Z 0009a338     QtCore4:QtCore4.dll
 0003:0000033c       __imp_??1QAbstractItemModel@@UAA@XZ 0009a33c     QtCore4:QtCore4.dll
 0003:00000340       __imp_?hasChildren@QAbstractItemModel@@UBA_NABVQModelIndex@@@Z 0009a340     QtCore4:QtCore4.dll
 0003:00000344       __imp_?setData@QAbstractItemModel@@UAA_NABVQModelIndex@@ABVQVariant@@H@Z 0009a344     QtCore4:QtCore4.dll
 0003:00000348       __imp_?headerData@QAbstractItemModel@@UBA?AVQVariant@@HW4Orientation@Qt@@H@Z 0009a348     QtCore4:QtCore4.dll
 0003:0000034c       __imp_?setHeaderData@QAbstractItemModel@@UAA_NHW4Orientation@Qt@@ABVQVariant@@H@Z 0009a34c     QtCore4:QtCore4.dll
 0003:00000350       __imp_?itemData@QAbstractItemModel@@UBA?AV?$QMap@HVQVariant@@@@ABVQModelIndex@@@Z 0009a350     QtCore4:QtCore4.dll
 0003:00000354       __imp_?setItemData@QAbstractItemModel@@UAA_NABVQModelIndex@@ABV?$QMap@HVQVariant@@@@@Z 0009a354     QtCore4:QtCore4.dll
 0003:00000358       __imp_?mimeTypes@QAbstractItemModel@@UBA?AVQStringList@@XZ 0009a358     QtCore4:QtCore4.dll
 0003:0000035c       __imp_?mimeData@QAbstractItemModel@@UBAPAVQMimeData@@ABV?$QList@VQModelIndex@@@@@Z 0009a35c     QtCore4:QtCore4.dll
 0003:00000360       __imp_?dropMimeData@QAbstractItemModel@@UAA_NPBVQMimeData@@W4DropAction@Qt@@HHABVQModelIndex@@@Z 0009a360     QtCore4:QtCore4.dll
 0003:00000364       __imp_?supportedDropActions@QAbstractItemModel@@UBA?AV?$QFlags@W4DropAction@Qt@@@@XZ 0009a364     QtCore4:QtCore4.dll
 0003:00000368       __imp_?insertRows@QAbstractItemModel@@UAA_NHHABVQModelIndex@@@Z 0009a368     QtCore4:QtCore4.dll
 0003:0000036c       __imp_?insertColumns@QAbstractItemModel@@UAA_NHHABVQModelIndex@@@Z 0009a36c     QtCore4:QtCore4.dll
 0003:00000370       __imp_?removeRows@QAbstractItemModel@@UAA_NHHABVQModelIndex@@@Z 0009a370     QtCore4:QtCore4.dll
 0003:00000374       __imp_?removeColumns@QAbstractItemModel@@UAA_NHHABVQModelIndex@@@Z 0009a374     QtCore4:QtCore4.dll
 0003:00000378       __imp_?fetchMore@QAbstractItemModel@@UAAXABVQModelIndex@@@Z 0009a378     QtCore4:QtCore4.dll
 0003:0000037c       __imp_?canFetchMore@QAbstractItemModel@@UBA_NABVQModelIndex@@@Z 0009a37c     QtCore4:QtCore4.dll
 0003:00000380       __imp_?sort@QAbstractItemModel@@UAAXHW4SortOrder@Qt@@@Z 0009a380     QtCore4:QtCore4.dll
 0003:00000384       __imp_?buddy@QAbstractItemModel@@UBA?AVQModelIndex@@ABV2@@Z 0009a384     QtCore4:QtCore4.dll
 0003:00000388       __imp_?match@QAbstractItemModel@@UBA?AV?$QList@VQModelIndex@@@@ABVQModelIndex@@HABVQVariant@@HV?$QFlags@W4MatchFlag@Qt@@@@@Z 0009a388     QtCore4:QtCore4.dll
 0003:0000038c       __imp_?span@QAbstractItemModel@@UBA?AVQSize@@ABVQModelIndex@@@Z 0009a38c     QtCore4:QtCore4.dll
 0003:00000390       __imp_?dataChanged@QAbstractItemModel@@IAAXABVQModelIndex@@0@Z 0009a390     QtCore4:QtCore4.dll
 0003:00000394       __imp_?submit@QAbstractItemModel@@UAA_NXZ 0009a394     QtCore4:QtCore4.dll
 0003:00000398       __imp_?revert@QAbstractItemModel@@UAAXXZ 0009a398     QtCore4:QtCore4.dll
 0003:0000039c       __imp_?reset@QAbstractItemModel@@IAAXXZ 0009a39c     QtCore4:QtCore4.dll
 0003:000003a0       __imp_??1QByteArray@@QAA@XZ 0009a3a0     QtCore4:QtCore4.dll
 0003:000003a4       __imp_??0QString@@QAA@ABVQLatin1String@@@Z 0009a3a4     QtCore4:QtCore4.dll
 0003:000003a8       __imp_?hasShrunk@QHashData@@QAAXXZ 0009a3a8     QtCore4:QtCore4.dll
 0003:000003ac       __imp_??1QDebug@@QAA@XZ    0009a3ac     QtCore4:QtCore4.dll
 0003:000003b0       __imp_??6QDebug@@QAAAAV0@H@Z 0009a3b0     QtCore4:QtCore4.dll
 0003:000003b4       __imp_??6QDebug@@QAAAAV0@PBD@Z 0009a3b4     QtCore4:QtCore4.dll
 0003:000003b8       __imp_??6QDebug@@QAAAAV0@ABVQString@@@Z 0009a3b8     QtCore4:QtCore4.dll
 0003:000003bc       __imp_?qDebug@@YA?AVQDebug@@XZ 0009a3bc     QtCore4:QtCore4.dll
 0003:000003c0       __imp_?parent@QModelIndex@@QBA?AV1@XZ 0009a3c0     QtCore4:QtCore4.dll
 0003:000003c4       __imp_?allocate@QVectorData@@SAPAU1@HH@Z 0009a3c4     QtCore4:QtCore4.dll
 0003:000003c8       __imp_?reallocate@QVectorData@@SAPAU1@PAU1@HHH@Z 0009a3c8     QtCore4:QtCore4.dll
 0003:000003cc       __imp_?grow@QVectorData@@SAHHHH_N@Z 0009a3cc     QtCore4:QtCore4.dll
 0003:000003d0       __imp_?freeNode@QHashData@@QAAXPAX@Z 0009a3d0     QtCore4:QtCore4.dll
 0003:000003d4       __imp_?shared_null@QVectorData@@2U1@A 0009a3d4     QtCore4:QtCore4.dll
 0003:000003d8       __imp_?self@QCoreApplication@@0PAV1@A 0009a3d8     QtCore4:QtCore4.dll
 0003:000003dc       __imp_?state@QAbstractAnimation@@QBA?AW4State@1@XZ 0009a3dc     QtCore4:QtCore4.dll
 0003:000003e0       __imp_?direction@QAbstractAnimation@@QBA?AW4Direction@1@XZ 0009a3e0     QtCore4:QtCore4.dll
 0003:000003e4       __imp_?setDirection@QAbstractAnimation@@QAAXW4Direction@1@@Z 0009a3e4     QtCore4:QtCore4.dll
 0003:000003e8       __imp_?start@QAbstractAnimation@@QAAXW4DeletionPolicy@1@@Z 0009a3e8     QtCore4:QtCore4.dll
 0003:000003ec       __imp_?updateDirection@QAbstractAnimation@@MAAXW4Direction@1@@Z 0009a3ec     QtCore4:QtCore4.dll
 0003:000003f0       __imp_?tr@QMetaObject@@QBA?AVQString@@PBD0@Z 0009a3f0     QtCore4:QtCore4.dll
 0003:000003f4       __imp_?lastIndexOf@QString@@QBAHVQChar@@HW4CaseSensitivity@Qt@@@Z 0009a3f4     QtCore4:QtCore4.dll
 0003:000003f8       __imp_?right@QString@@QBA?AV1@H@Z 0009a3f8     QtCore4:QtCore4.dll
 0003:000003fc       __imp_?toAscii@QString@@QBA?AVQByteArray@@XZ 0009a3fc     QtCore4:QtCore4.dll
 0003:00000400       __imp_?applicationFilePath@QCoreApplication@@SA?AVQString@@XZ 0009a400     QtCore4:QtCore4.dll
 0003:00000404       __imp_?metaObject@QPropertyAnimation@@UBAPBUQMetaObject@@XZ 0009a404     QtCore4:QtCore4.dll
 0003:00000408       __imp_?qt_metacast@QPropertyAnimation@@UAAPAXPBD@Z 0009a408     QtCore4:QtCore4.dll
 0003:0000040c       __imp_?qt_metacall@QPropertyAnimation@@UAAHW4Call@QMetaObject@@HPAPAX@Z 0009a40c     QtCore4:QtCore4.dll
 0003:00000410       __imp_??0QPropertyAnimation@@QAA@PAVQObject@@ABVQByteArray@@0@Z 0009a410     QtCore4:QtCore4.dll
 0003:00000414       __imp_??1QPropertyAnimation@@UAA@XZ 0009a414     QtCore4:QtCore4.dll
 0003:00000418       __imp_?event@QPropertyAnimation@@MAA_NPAVQEvent@@@Z 0009a418     QtCore4:QtCore4.dll
 0003:0000041c       __imp_?updateCurrentValue@QPropertyAnimation@@MAAXABVQVariant@@@Z 0009a41c     QtCore4:QtCore4.dll
 0003:00000420       __imp_?updateState@QPropertyAnimation@@MAAXW4State@QAbstractAnimation@@0@Z 0009a420     QtCore4:QtCore4.dll
 0003:00000424       __imp_??0QByteArray@@QAA@PBD@Z 0009a424     QtCore4:QtCore4.dll
 0003:00000428       __imp_?qMemSet@@YAPAXPAXHI@Z 0009a428     QtCore4:QtCore4.dll
 0003:0000042c       __imp_?startTimer@QObject@@QAAHH@Z 0009a42c     QtCore4:QtCore4.dll
 0003:00000430       __imp_?installEventFilter@QObject@@QAAXPAV1@@Z 0009a430     QtCore4:QtCore4.dll
 0003:00000434       __imp_?disconnect@QObject@@SA_NPBV1@PBD01@Z 0009a434     QtCore4:QtCore4.dll
 0003:00000438       __imp_?setStartValue@QVariantAnimation@@QAAXABVQVariant@@@Z 0009a438     QtCore4:QtCore4.dll
 0003:0000043c       __imp_?setEndValue@QVariantAnimation@@QAAXABVQVariant@@@Z 0009a43c     QtCore4:QtCore4.dll
 0003:00000440       __imp_?duration@QVariantAnimation@@UBAHXZ 0009a440     QtCore4:QtCore4.dll
 0003:00000444       __imp_?setDuration@QVariantAnimation@@QAAXH@Z 0009a444     QtCore4:QtCore4.dll
 0003:00000448       __imp_?updateCurrentTime@QVariantAnimation@@MAAXH@Z 0009a448     QtCore4:QtCore4.dll
 0003:0000044c       __imp_?interpolated@QVariantAnimation@@MBA?AVQVariant@@ABV2@0M@Z 0009a44c     QtCore4:QtCore4.dll
 0003:00000450       __imp_?ref@QBasicAtomicInt@@QAA_NXZ 0009a450     QtCore4:QtCore4.dll
 0003:00000454       __imp_?insert@QString@@QAAAAV1@HABV1@@Z 0009a454     QtCore4:QtCore4.dll
 0003:00000458       __imp_??0QString@@QAA@PBD@Z 0009a458     QtCore4:QtCore4.dll
 0003:0000045c       __imp_??4QString@@QAAAAV0@ABVQLatin1String@@@Z 0009a45c     QtCore4:QtCore4.dll
 0003:00000460       __imp_??0QString@@QAA@XZ   0009a460     QtCore4:QtCore4.dll
 0003:00000464       __imp_??1QString@@QAA@XZ   0009a464     QtCore4:QtCore4.dll
 0003:00000468       __imp_?free_helper@QHashData@@QAAXP6AXPAUNode@1@@Z@Z 0009a468     QtCore4:QtCore4.dll
 0003:0000046c       __imp_?free@QVectorData@@SAXPAU1@H@Z 0009a46c     QtCore4:QtCore4.dll
 0003:00000470       __imp_?deref@QBasicAtomicInt@@QAA_NXZ 0009a470     QtCore4:QtCore4.dll
 0003:00000474       __imp_?hasIndex@QAbstractItemModel@@QBA_NHHABVQModelIndex@@@Z 0009a474     QtCore4:QtCore4.dll
 0003:00000478       __imp_?disconnectNotify@QObject@@MAAXPBD@Z 0009a478     QtCore4:QtCore4.dll
 0003:0000047c       __imp_?connectNotify@QObject@@MAAXPBD@Z 0009a47c     QtCore4:QtCore4.dll
 0003:00000480       __imp_?customEvent@QObject@@MAAXPAVQEvent@@@Z 0009a480     QtCore4:QtCore4.dll
 0003:00000484       __imp_?childEvent@QObject@@MAAXPAVQChildEvent@@@Z 0009a484     QtCore4:QtCore4.dll
 0003:00000488       __imp_?timerEvent@QObject@@MAAXPAVQTimerEvent@@@Z 0009a488     QtCore4:QtCore4.dll
 0003:0000048c       __imp_?sender@QObject@@IBAPAV1@XZ 0009a48c     QtCore4:QtCore4.dll
 0003:00000490       __imp_?connect@QObject@@SA_NPBV1@PBD01W4ConnectionType@Qt@@@Z 0009a490     QtCore4:QtCore4.dll
 0003:00000494       __imp_?eventFilter@QObject@@UAA_NPAV1@PAVQEvent@@@Z 0009a494     QtCore4:QtCore4.dll
 0003:00000498       __imp_??0QChar@@QAA@D@Z    0009a498     QtCore4:QtCore4.dll
 0003:0000049c       __imp_?contains@QRect@@QBA_NABVQPoint@@_N@Z 0009a49c     QtCore4:QtCore4.dll
 0003:000004a0       __imp_?stop@QBasicTimer@@QAAXXZ 0009a4a0     QtCore4:QtCore4.dll
 0003:000004a4       __imp_?start@QBasicTimer@@QAAXHPAVQObject@@@Z 0009a4a4     QtCore4:QtCore4.dll
 0003:000004a8       __imp_?number@QString@@SA?AV1@HH@Z 0009a4a8     QtCore4:QtCore4.dll
 0003:000004ac       __imp_??4QString@@QAAAAV0@ABV0@@Z 0009a4ac     QtCore4:QtCore4.dll
 0003:000004b0       __imp_??0QString@@QAA@HVQChar@@@Z 0009a4b0     QtCore4:QtCore4.dll
 0003:000004b4       __imp_?cast@QMetaObject@@QBAPAVQObject@@PAV2@@Z 0009a4b4     QtCore4:QtCore4.dll
 0003:000004b8       __imp_?nextNode@QHashData@@SAPAUNode@1@PAU21@@Z 0009a4b8     QtCore4:QtCore4.dll
 0003:000004bc       __imp_?detach_helper2@QHashData@@QAAPAU1@P6AXPAUNode@1@PAX@ZP6AX0@ZHH@Z 0009a4bc     QtCore4:QtCore4.dll
 0003:000004c0       __imp_?allocateNode@QHashData@@QAAPAXH@Z 0009a4c0     QtCore4:QtCore4.dll
 0003:000004c4       __imp_?toString@QVariant@@QBA?AVQString@@XZ 0009a4c4     QtCore4:QtCore4.dll
 0003:000004c8       __imp_?toBool@QVariant@@QBA_NXZ 0009a4c8     QtCore4:QtCore4.dll
 0003:000004cc       __imp_?toInt@QVariant@@QBAHPA_N@Z 0009a4cc     QtCore4:QtCore4.dll
 0003:000004d0       __imp_?type@QVariant@@QBA?AW4Type@1@XZ 0009a4d0     QtCore4:QtCore4.dll
 0003:000004d4       __imp_??4QVariant@@QAAAAV0@ABV0@@Z 0009a4d4     QtCore4:QtCore4.dll
 0003:000004d8       __imp_??1QVariant@@QAA@XZ  0009a4d8     QtCore4:QtCore4.dll
 0003:000004dc       __imp_??0QVariant@@QAA@H@Z 0009a4dc     QtCore4:QtCore4.dll
 0003:000004e0       __imp_??0QVariant@@QAA@_N@Z 0009a4e0     QtCore4:QtCore4.dll
 0003:000004e4       __imp_?flags@QModelIndex@@QBA?AV?$QFlags@W4ItemFlag@Qt@@@@XZ 0009a4e4     QtCore4:QtCore4.dll
 0003:000004e8       __imp_?data@QModelIndex@@QBA?AVQVariant@@H@Z 0009a4e8     QtCore4:QtCore4.dll
 0003:000004ec       __imp_?shared_null@QHashData@@2U1@A 0009a4ec     QtCore4:QtCore4.dll
 0003:000004f0       __imp_??0QRect@@QAA@ABVQPoint@@ABVQSize@@@Z 0009a4f0     QtCore4:QtCore4.dll
 0003:000004f4       __imp_??0QRect@@QAA@HHHH@Z 0009a4f4     QtCore4:QtCore4.dll
 0003:000004f8       __imp_??0QVariant@@QAA@XZ  0009a4f8     QtCore4:QtCore4.dll
 0003:000004fc       __imp_?willGrow@QHashData@@QAA_NXZ 0009a4fc     QtCore4:QtCore4.dll
 0003:00000500       \177QtCore4_NULL_THUNK_DATA 0009a500     QtCore4:QtCore4.dll
 0003:00000504       __imp_?rect@QPixmap@@QBA?AVQRect@@XZ 0009a504     QtGui4:QtGui4.dll
 0003:00000508       __imp_?setFixedSize@QWidget@@QAAXABVQSize@@@Z 0009a508     QtGui4:QtGui4.dll
 0003:0000050c       __imp_?drawLines@QPainter@@QAAXPBVQLine@@H@Z 0009a50c     QtGui4:QtGui4.dll
 0003:00000510       __imp_?drawPolygon@QPainter@@QAAXPBVQPoint@@HW4FillRule@Qt@@@Z 0009a510     QtGui4:QtGui4.dll
 0003:00000514       __imp_??0QBrush@@QAA@W4GlobalColor@Qt@@W4BrushStyle@2@@Z 0009a514     QtGui4:QtGui4.dll
 0003:00000518       __imp_?mapToGlobal@QWidget@@QBA?AVQPoint@@ABV2@@Z 0009a518     QtGui4:QtGui4.dll
 0003:0000051c       __imp_?mapTo@QWidget@@QBA?AVQPoint@@PAV1@ABV2@@Z 0009a51c     QtGui4:QtGui4.dll
 0003:00000520       __imp_??0QSizePolicy@@QAA@W4Policy@0@0W4ControlType@0@@Z 0009a520     QtGui4:QtGui4.dll
 0003:00000524       __imp_?style@QWidget@@QBAPAVQStyle@@XZ 0009a524     QtGui4:QtGui4.dll
 0003:00000528       __imp_?setBackgroundRole@QWidget@@QAAXW4ColorRole@QPalette@@@Z 0009a528     QtGui4:QtGui4.dll
 0003:0000052c       __imp_?setForegroundRole@QWidget@@QAAXW4ColorRole@QPalette@@@Z 0009a52c     QtGui4:QtGui4.dll
 0003:00000530       __imp_?focusPolicy@QWidget@@QBA?AW4FocusPolicy@Qt@@XZ 0009a530     QtGui4:QtGui4.dll
 0003:00000534       __imp_?setFocusPolicy@QWidget@@QAAXW4FocusPolicy@Qt@@@Z 0009a534     QtGui4:QtGui4.dll
 0003:00000538       __imp_?setSizePolicy@QWidget@@QAAXVQSizePolicy@@@Z 0009a538     QtGui4:QtGui4.dll
 0003:0000053c       __imp_?updateGeometry@QWidget@@QAAXXZ 0009a53c     QtGui4:QtGui4.dll
 0003:00000540       __imp_?find@QPixmapCache@@SA_NABVQString@@AAVQPixmap@@@Z 0009a540     QtGui4:QtGui4.dll
 0003:00000544       __imp_?reason@QFocusEvent@@QAA?AW4FocusReason@Qt@@XZ 0009a544     QtGui4:QtGui4.dll
 0003:00000548       __imp_?setParent@QWidget@@QAAXPAV1@@Z 0009a548     QtGui4:QtGui4.dll
 0003:0000054c       __imp_?staticMetaObject@QAbstractProxyModel@@2UQMetaObject@@B 0009a54c     QtGui4:QtGui4.dll
 0003:00000550       __imp_?qt_metacast@QAbstractProxyModel@@UAAPAXPBD@Z 0009a550     QtGui4:QtGui4.dll
 0003:00000554       __imp_?qt_metacall@QAbstractProxyModel@@UAAHW4Call@QMetaObject@@HPAPAX@Z 0009a554     QtGui4:QtGui4.dll
 0003:00000558       __imp_?staticMetaObject@QWidget@@2UQMetaObject@@B 0009a558     QtGui4:QtGui4.dll
 0003:0000055c       __imp_?drawPixmap@QPainter@@QAAXABVQPoint@@ABVQPixmap@@@Z 0009a55c     QtGui4:QtGui4.dll
 0003:00000560       __imp_?drawPixmap@QPainter@@QAAXABVQRect@@ABVQPixmap@@@Z 0009a560     QtGui4:QtGui4.dll
 0003:00000564       __imp_?metaObject@QLabel@@UBAPBUQMetaObject@@XZ 0009a564     QtGui4:QtGui4.dll
 0003:00000568       __imp_?qt_metacast@QLabel@@UAAPAXPBD@Z 0009a568     QtGui4:QtGui4.dll
 0003:0000056c       __imp_?qt_metacall@QLabel@@UAAHW4Call@QMetaObject@@HPAPAX@Z 0009a56c     QtGui4:QtGui4.dll
 0003:00000570       __imp_??0QLabel@@QAA@PAVQWidget@@V?$QFlags@W4WindowType@Qt@@@@@Z 0009a570     QtGui4:QtGui4.dll
 0003:00000574       __imp_??1QLabel@@UAA@XZ    0009a574     QtGui4:QtGui4.dll
 0003:00000578       __imp_?setAlignment@QLabel@@QAAXV?$QFlags@W4AlignmentFlag@Qt@@@@@Z 0009a578     QtGui4:QtGui4.dll
 0003:0000057c       __imp_?sizeHint@QLabel@@UBA?AVQSize@@XZ 0009a57c     QtGui4:QtGui4.dll
 0003:00000580       __imp_?minimumSizeHint@QLabel@@UBA?AVQSize@@XZ 0009a580     QtGui4:QtGui4.dll
 0003:00000584       __imp_?heightForWidth@QLabel@@UBAHH@Z 0009a584     QtGui4:QtGui4.dll
 0003:00000588       __imp_?setText@QLabel@@QAAXABVQString@@@Z 0009a588     QtGui4:QtGui4.dll
 0003:0000058c       __imp_?event@QLabel@@MAA_NPAVQEvent@@@Z 0009a58c     QtGui4:QtGui4.dll
 0003:00000590       __imp_?keyPressEvent@QLabel@@MAAXPAVQKeyEvent@@@Z 0009a590     QtGui4:QtGui4.dll
 0003:00000594       __imp_?paintEvent@QLabel@@MAAXPAVQPaintEvent@@@Z 0009a594     QtGui4:QtGui4.dll
 0003:00000598       __imp_?changeEvent@QLabel@@MAAXPAVQEvent@@@Z 0009a598     QtGui4:QtGui4.dll
 0003:0000059c       __imp_?mousePressEvent@QLabel@@MAAXPAVQMouseEvent@@@Z 0009a59c     QtGui4:QtGui4.dll
 0003:000005a0       __imp_?mouseMoveEvent@QLabel@@MAAXPAVQMouseEvent@@@Z 0009a5a0     QtGui4:QtGui4.dll
 0003:000005a4       __imp_?mouseReleaseEvent@QLabel@@MAAXPAVQMouseEvent@@@Z 0009a5a4     QtGui4:QtGui4.dll
 0003:000005a8       __imp_?focusInEvent@QLabel@@MAAXPAVQFocusEvent@@@Z 0009a5a8     QtGui4:QtGui4.dll
 0003:000005ac       __imp_?focusOutEvent@QLabel@@MAAXPAVQFocusEvent@@@Z 0009a5ac     QtGui4:QtGui4.dll
 0003:000005b0       __imp_?focusNextPrevChild@QLabel@@MAA_N_N@Z 0009a5b0     QtGui4:QtGui4.dll
 0003:000005b4       __imp_?setStyle@QWidget@@QAAXPAVQStyle@@@Z 0009a5b4     QtGui4:QtGui4.dll
 0003:000005b8       __imp_?metaObject@QCommonStyle@@UBAPBUQMetaObject@@XZ 0009a5b8     QtGui4:QtGui4.dll
 0003:000005bc       __imp_?qt_metacast@QCommonStyle@@UAAPAXPBD@Z 0009a5bc     QtGui4:QtGui4.dll
 0003:000005c0       __imp_?qt_metacall@QCommonStyle@@UAAHW4Call@QMetaObject@@HPAPAX@Z 0009a5c0     QtGui4:QtGui4.dll
 0003:000005c4       __imp_??0QCommonStyle@@QAA@XZ 0009a5c4     QtGui4:QtGui4.dll
 0003:000005c8       __imp_??1QCommonStyle@@UAA@XZ 0009a5c8     QtGui4:QtGui4.dll
 0003:000005cc       __imp_?drawPrimitive@QCommonStyle@@UBAXW4PrimitiveElement@QStyle@@PBVQStyleOption@@PAVQPainter@@PBVQWidget@@@Z 0009a5cc     QtGui4:QtGui4.dll
 0003:000005d0       __imp_?drawControl@QCommonStyle@@UBAXW4ControlElement@QStyle@@PBVQStyleOption@@PAVQPainter@@PBVQWidget@@@Z 0009a5d0     QtGui4:QtGui4.dll
 0003:000005d4       __imp_?subElementRect@QCommonStyle@@UBA?AVQRect@@W4SubElement@QStyle@@PBVQStyleOption@@PBVQWidget@@@Z 0009a5d4     QtGui4:QtGui4.dll
 0003:000005d8       __imp_?drawComplexControl@QCommonStyle@@UBAXW4ComplexControl@QStyle@@PBVQStyleOptionComplex@@PAVQPainter@@PBVQWidget@@@Z 0009a5d8     QtGui4:QtGui4.dll
 0003:000005dc       __imp_?hitTestComplexControl@QCommonStyle@@UBA?AW4SubControl@QStyle@@W4ComplexControl@3@PBVQStyleOptionComplex@@ABVQPoint@@PBVQWidget@@@Z 0009a5dc     QtGui4:QtGui4.dll
 0003:000005e0       __imp_?subControlRect@QCommonStyle@@UBA?AVQRect@@W4ComplexControl@QStyle@@PBVQStyleOptionComplex@@W4SubControl@4@PBVQWidget@@@Z 0009a5e0     QtGui4:QtGui4.dll
 0003:000005e4       __imp_?sizeFromContents@QCommonStyle@@UBA?AVQSize@@W4ContentsType@QStyle@@PBVQStyleOption@@ABV2@PBVQWidget@@@Z 0009a5e4     QtGui4:QtGui4.dll
 0003:000005e8       __imp_?pixelMetric@QCommonStyle@@UBAHW4PixelMetric@QStyle@@PBVQStyleOption@@PBVQWidget@@@Z 0009a5e8     QtGui4:QtGui4.dll
 0003:000005ec       __imp_?styleHint@QCommonStyle@@UBAHW4StyleHint@QStyle@@PBVQStyleOption@@PBVQWidget@@PAVQStyleHintReturn@@@Z 0009a5ec     QtGui4:QtGui4.dll
 0003:000005f0       __imp_?standardPixmap@QCommonStyle@@UBA?AVQPixmap@@W4StandardPixmap@QStyle@@PBVQStyleOption@@PBVQWidget@@@Z 0009a5f0     QtGui4:QtGui4.dll
 0003:000005f4       __imp_?generatedIconPixmap@QCommonStyle@@UBA?AVQPixmap@@W4Mode@QIcon@@ABV2@PBVQStyleOption@@@Z 0009a5f4     QtGui4:QtGui4.dll
 0003:000005f8       __imp_?polish@QCommonStyle@@UAAXPAVQWidget@@@Z 0009a5f8     QtGui4:QtGui4.dll
 0003:000005fc       __imp_?polish@QCommonStyle@@UAAXPAVQApplication@@@Z 0009a5fc     QtGui4:QtGui4.dll
 0003:00000600       __imp_?polish@QCommonStyle@@UAAXAAVQPalette@@@Z 0009a600     QtGui4:QtGui4.dll
 0003:00000604       __imp_?unpolish@QCommonStyle@@UAAXPAVQApplication@@@Z 0009a604     QtGui4:QtGui4.dll
 0003:00000608       __imp_?unpolish@QCommonStyle@@UAAXPAVQWidget@@@Z 0009a608     QtGui4:QtGui4.dll
 0003:0000060c       __imp_?metaObject@QSlider@@UBAPBUQMetaObject@@XZ 0009a60c     QtGui4:QtGui4.dll
 0003:00000610       __imp_?qt_metacast@QSlider@@UAAPAXPBD@Z 0009a610     QtGui4:QtGui4.dll
 0003:00000614       __imp_?qt_metacall@QSlider@@UAAHW4Call@QMetaObject@@HPAPAX@Z 0009a614     QtGui4:QtGui4.dll
 0003:00000618       __imp_??0QSlider@@QAA@PAVQWidget@@@Z 0009a618     QtGui4:QtGui4.dll
 0003:0000061c       __imp_??1QSlider@@UAA@XZ   0009a61c     QtGui4:QtGui4.dll
 0003:00000620       __imp_?sizeHint@QSlider@@UBA?AVQSize@@XZ 0009a620     QtGui4:QtGui4.dll
 0003:00000624       __imp_?minimumSizeHint@QSlider@@UBA?AVQSize@@XZ 0009a624     QtGui4:QtGui4.dll
 0003:00000628       __imp_?event@QSlider@@UAA_NPAVQEvent@@@Z 0009a628     QtGui4:QtGui4.dll
 0003:0000062c       __imp_?paintEvent@QSlider@@MAAXPAVQPaintEvent@@@Z 0009a62c     QtGui4:QtGui4.dll
 0003:00000630       __imp_?mousePressEvent@QSlider@@MAAXPAVQMouseEvent@@@Z 0009a630     QtGui4:QtGui4.dll
 0003:00000634       __imp_?mouseReleaseEvent@QSlider@@MAAXPAVQMouseEvent@@@Z 0009a634     QtGui4:QtGui4.dll
 0003:00000638       __imp_?mouseMoveEvent@QSlider@@MAAXPAVQMouseEvent@@@Z 0009a638     QtGui4:QtGui4.dll
 0003:0000063c       __imp_?setRange@QAbstractSlider@@QAAXHH@Z 0009a63c     QtGui4:QtGui4.dll
 0003:00000640       __imp_?setPageStep@QAbstractSlider@@QAAXH@Z 0009a640     QtGui4:QtGui4.dll
 0003:00000644       __imp_?value@QAbstractSlider@@QBAHXZ 0009a644     QtGui4:QtGui4.dll
 0003:00000648       __imp_?setValue@QAbstractSlider@@QAAXH@Z 0009a648     QtGui4:QtGui4.dll
 0003:0000064c       __imp_?setOrientation@QAbstractSlider@@QAAXW4Orientation@Qt@@@Z 0009a64c     QtGui4:QtGui4.dll
 0003:00000650       __imp_?sliderChange@QAbstractSlider@@MAAXW4SliderChange@1@@Z 0009a650     QtGui4:QtGui4.dll
 0003:00000654       __imp_?keyPressEvent@QAbstractSlider@@MAAXPAVQKeyEvent@@@Z 0009a654     QtGui4:QtGui4.dll
 0003:00000658       __imp_?timerEvent@QAbstractSlider@@MAAXPAVQTimerEvent@@@Z 0009a658     QtGui4:QtGui4.dll
 0003:0000065c       __imp_?changeEvent@QAbstractSlider@@MAAXPAVQEvent@@@Z 0009a65c     QtGui4:QtGui4.dll
 0003:00000660       __imp_?itemTextRect@QStyle@@UBA?AVQRect@@ABVQFontMetrics@@ABV2@H_NABVQString@@@Z 0009a660     QtGui4:QtGui4.dll
 0003:00000664       __imp_?itemPixmapRect@QStyle@@UBA?AVQRect@@ABV2@HABVQPixmap@@@Z 0009a664     QtGui4:QtGui4.dll
 0003:00000668       __imp_?drawItemText@QStyle@@UBAXPAVQPainter@@ABVQRect@@HABVQPalette@@_NABVQString@@W4ColorRole@4@@Z 0009a668     QtGui4:QtGui4.dll
 0003:0000066c       __imp_?drawItemPixmap@QStyle@@UBAXPAVQPainter@@ABVQRect@@HABVQPixmap@@@Z 0009a66c     QtGui4:QtGui4.dll
 0003:00000670       __imp_?standardPalette@QStyle@@UBA?AVQPalette@@XZ 0009a670     QtGui4:QtGui4.dll
 0003:00000674       __imp_?color@QPalette@@QBAABVQColor@@W4ColorGroup@1@W4ColorRole@1@@Z 0009a674     QtGui4:QtGui4.dll
 0003:00000678       __imp_?isEnabled@QWidget@@QBA_NXZ 0009a678     QtGui4:QtGui4.dll
 0003:0000067c       __imp_?drawPixmap@QPainter@@QAAXHHABVQPixmap@@HHHH@Z 0009a67c     QtGui4:QtGui4.dll
 0003:00000680       __imp_??0QPixmap@@QAA@HH@Z 0009a680     QtGui4:QtGui4.dll
 0003:00000684       __imp_??4QPixmap@@QAAAAV0@ABV0@@Z 0009a684     QtGui4:QtGui4.dll
 0003:00000688       __imp_?buttons@QMouseEvent@@QBA?AV?$QFlags@W4MouseButton@Qt@@@@XZ 0009a688     QtGui4:QtGui4.dll
 0003:0000068c       __imp_??0QMouseEvent@@QAA@ABV0@@Z 0009a68c     QtGui4:QtGui4.dll
 0003:00000690       __imp_??0QMouseEvent@@QAA@W4Type@QEvent@@ABVQPoint@@W4MouseButton@Qt@@V?$QFlags@W4MouseButton@Qt@@@@V?$QFlags@W4KeyboardModifier@Qt@@@@@Z 0009a690     QtGui4:QtGui4.dll
 0003:00000694       __imp_??1QMouseEvent@@UAA@XZ 0009a694     QtGui4:QtGui4.dll
 0003:00000698       __imp_?isNull@QPixmap@@QBA_NXZ 0009a698     QtGui4:QtGui4.dll
 0003:0000069c       __imp_??0QIcon@@QAA@ABVQPixmap@@@Z 0009a69c     QtGui4:QtGui4.dll
 0003:000006a0       __imp_??1QIcon@@QAA@XZ     0009a6a0     QtGui4:QtGui4.dll
 0003:000006a4       __imp_?pixmap@QIcon@@QBA?AVQPixmap@@ABVQSize@@W4Mode@1@W4State@1@@Z 0009a6a4     QtGui4:QtGui4.dll
 0003:000006a8       __imp_?metaObject@QAbstractButton@@UBAPBUQMetaObject@@XZ 0009a6a8     QtGui4:QtGui4.dll
 0003:000006ac       __imp_?qt_metacast@QAbstractButton@@UAAPAXPBD@Z 0009a6ac     QtGui4:QtGui4.dll
 0003:000006b0       __imp_?qt_metacall@QAbstractButton@@UAAHW4Call@QMetaObject@@HPAPAX@Z 0009a6b0     QtGui4:QtGui4.dll
 0003:000006b4       __imp_??0QAbstractButton@@QAA@PAVQWidget@@@Z 0009a6b4     QtGui4:QtGui4.dll
 0003:000006b8       __imp_??1QAbstractButton@@UAA@XZ 0009a6b8     QtGui4:QtGui4.dll
 0003:000006bc       __imp_?setText@QAbstractButton@@QAAXABVQString@@@Z 0009a6bc     QtGui4:QtGui4.dll
 0003:000006c0       __imp_?text@QAbstractButton@@QBA?AVQString@@XZ 0009a6c0     QtGui4:QtGui4.dll
 0003:000006c4       __imp_?setIcon@QAbstractButton@@QAAXABVQIcon@@@Z 0009a6c4     QtGui4:QtGui4.dll
 0003:000006c8       __imp_?icon@QAbstractButton@@QBA?AVQIcon@@XZ 0009a6c8     QtGui4:QtGui4.dll
 0003:000006cc       __imp_?isDown@QAbstractButton@@QBA_NXZ 0009a6cc     QtGui4:QtGui4.dll
 0003:000006d0       __imp_?hitButton@QAbstractButton@@MBA_NABVQPoint@@@Z 0009a6d0     QtGui4:QtGui4.dll
 0003:000006d4       __imp_?checkStateSet@QAbstractButton@@MAAXXZ 0009a6d4     QtGui4:QtGui4.dll
 0003:000006d8       __imp_?nextCheckState@QAbstractButton@@MAAXXZ 0009a6d8     QtGui4:QtGui4.dll
 0003:000006dc       __imp_?event@QAbstractButton@@MAA_NPAVQEvent@@@Z 0009a6dc     QtGui4:QtGui4.dll
 0003:000006e0       __imp_?keyPressEvent@QAbstractButton@@MAAXPAVQKeyEvent@@@Z 0009a6e0     QtGui4:QtGui4.dll
 0003:000006e4       __imp_?keyReleaseEvent@QAbstractButton@@MAAXPAVQKeyEvent@@@Z 0009a6e4     QtGui4:QtGui4.dll
 0003:000006e8       __imp_?mousePressEvent@QAbstractButton@@MAAXPAVQMouseEvent@@@Z 0009a6e8     QtGui4:QtGui4.dll
 0003:000006ec       __imp_?mouseReleaseEvent@QAbstractButton@@MAAXPAVQMouseEvent@@@Z 0009a6ec     QtGui4:QtGui4.dll
 0003:000006f0       __imp_?mouseMoveEvent@QAbstractButton@@MAAXPAVQMouseEvent@@@Z 0009a6f0     QtGui4:QtGui4.dll
 0003:000006f4       __imp_?focusInEvent@QAbstractButton@@MAAXPAVQFocusEvent@@@Z 0009a6f4     QtGui4:QtGui4.dll
 0003:000006f8       __imp_?focusOutEvent@QAbstractButton@@MAAXPAVQFocusEvent@@@Z 0009a6f8     QtGui4:QtGui4.dll
 0003:000006fc       __imp_?changeEvent@QAbstractButton@@MAAXPAVQEvent@@@Z 0009a6fc     QtGui4:QtGui4.dll
 0003:00000700       __imp_?timerEvent@QAbstractButton@@MAAXPAVQTimerEvent@@@Z 0009a700     QtGui4:QtGui4.dll
 0003:00000704       __imp_?boundingRect@QFontMetrics@@QBA?AVQRect@@ABVQString@@@Z 0009a704     QtGui4:QtGui4.dll
 0003:00000708       __imp_?scaled@QImage@@QBA?AV1@HHW4AspectRatioMode@Qt@@W4TransformationMode@3@@Z 0009a708     QtGui4:QtGui4.dll
 0003:0000070c       __imp_?drawRect@QPainter@@QAAXHHHH@Z 0009a70c     QtGui4:QtGui4.dll
 0003:00000710       __imp_?fillRect@QPainter@@QAAXHHHHABVQBrush@@@Z 0009a710     QtGui4:QtGui4.dll
 0003:00000714       __imp_?drawImage@QPainter@@QAAXABVQPoint@@ABVQImage@@@Z 0009a714     QtGui4:QtGui4.dll
 0003:00000718       __imp_??1QLinearGradient@@QAA@XZ 0009a718     QtGui4:QtGui4.dll
 0003:0000071c       __imp_?setAttribute@QWidget@@QAAXW4WidgetAttribute@Qt@@_N@Z 0009a71c     QtGui4:QtGui4.dll
 0003:00000720       __imp_??0QLinearGradient@@QAA@ABVQPointF@@0@Z 0009a720     QtGui4:QtGui4.dll
 0003:00000724       __imp_?toImage@QPixmap@@QBA?AVQImage@@XZ 0009a724     QtGui4:QtGui4.dll
 0003:00000728       __imp_??0QPainter@@QAA@XZ  0009a728     QtGui4:QtGui4.dll
 0003:0000072c       __imp_?begin@QPainter@@QAA_NPAVQPaintDevice@@@Z 0009a72c     QtGui4:QtGui4.dll
 0003:00000730       __imp_?end@QPainter@@QAA_NXZ 0009a730     QtGui4:QtGui4.dll
 0003:00000734       __imp_?setPen@QPainter@@QAAXABVQPen@@@Z 0009a734     QtGui4:QtGui4.dll
 0003:00000738       __imp_?setRenderHint@QPainter@@QAAXW4RenderHint@1@_N@Z 0009a738     QtGui4:QtGui4.dll
 0003:0000073c       __imp_??0QBrush@@QAA@ABVQGradient@@@Z 0009a73c     QtGui4:QtGui4.dll
 0003:00000740       __imp_??0QBrush@@QAA@XZ    0009a740     QtGui4:QtGui4.dll
 0003:00000744       __imp_?modifiers@QKeyEvent@@QBA?AV?$QFlags@W4KeyboardModifier@Qt@@@@XZ 0009a744     QtGui4:QtGui4.dll
 0003:00000748       __imp_??0QPen@@QAA@ABVQBrush@@MW4PenStyle@Qt@@W4PenCapStyle@3@W4PenJoinStyle@3@@Z 0009a748     QtGui4:QtGui4.dll
 0003:0000074c       __imp_??1QPen@@QAA@XZ      0009a74c     QtGui4:QtGui4.dll
 0003:00000750       __imp_??0QImage@@QAA@ABV0@@Z 0009a750     QtGui4:QtGui4.dll
 0003:00000754       __imp_??0QImage@@QAA@HHW4Format@0@@Z 0009a754     QtGui4:QtGui4.dll
 0003:00000758       __imp_??0QImage@@QAA@XZ    0009a758     QtGui4:QtGui4.dll
 0003:0000075c       __imp_??4QImage@@QAAAAV0@ABV0@@Z 0009a75c     QtGui4:QtGui4.dll
 0003:00000760       __imp_?isNull@QImage@@QBA_NXZ 0009a760     QtGui4:QtGui4.dll
 0003:00000764       __imp_?isDetached@QImage@@QBA_NXZ 0009a764     QtGui4:QtGui4.dll
 0003:00000768       __imp_?width@QImage@@QBAHXZ 0009a768     QtGui4:QtGui4.dll
 0003:0000076c       __imp_?height@QImage@@QBAHXZ 0009a76c     QtGui4:QtGui4.dll
 0003:00000770       __imp_?scanLine@QImage@@QAAPAEH@Z 0009a770     QtGui4:QtGui4.dll
 0003:00000774       __imp_?pixel@QImage@@QBAIHH@Z 0009a774     QtGui4:QtGui4.dll
 0003:00000778       __imp_?setPixel@QImage@@QAAXHHI@Z 0009a778     QtGui4:QtGui4.dll
 0003:0000077c       __imp_?fill@QImage@@QAAXI@Z 0009a77c     QtGui4:QtGui4.dll
 0003:00000780       __imp_??0QFont@@QAA@ABVQString@@HH_N@Z 0009a780     QtGui4:QtGui4.dll
 0003:00000784       __imp_?setColorAt@QGradient@@QAAXMABVQColor@@@Z 0009a784     QtGui4:QtGui4.dll
 0003:00000788       __imp_?setBrush@QPalette@@QAAXW4ColorRole@1@ABVQBrush@@@Z 0009a788     QtGui4:QtGui4.dll
 0003:0000078c       __imp_?window@QWidget@@QBAPAV1@XZ 0009a78c     QtGui4:QtGui4.dll
 0003:00000790       __imp_?windowTitle@QWidget@@QBA?AVQString@@XZ 0009a790     QtGui4:QtGui4.dll
 0003:00000794       __imp_?setAutoFillBackground@QWidget@@QAAX_N@Z 0009a794     QtGui4:QtGui4.dll
 0003:00000798       __imp_??0QBrush@@QAA@ABVQPixmap@@@Z 0009a798     QtGui4:QtGui4.dll
 0003:0000079c       __imp_??0QImage@@QAA@ABVQString@@PBD@Z 0009a79c     QtGui4:QtGui4.dll
 0003:000007a0       __imp_??1QImage@@UAA@XZ    0009a7a0     QtGui4:QtGui4.dll
 0003:000007a4       __imp_?devType@QImage@@UBAHXZ 0009a7a4     QtGui4:QtGui4.dll
 0003:000007a8       __imp_?paintEngine@QImage@@UBAPAVQPaintEngine@@XZ 0009a7a8     QtGui4:QtGui4.dll
 0003:000007ac       __imp_?metric@QImage@@MBAHW4PaintDeviceMetric@QPaintDevice@@@Z 0009a7ac     QtGui4:QtGui4.dll
 0003:000007b0       __imp_?setColor@QPalette@@QAAXW4ColorRole@1@ABVQColor@@@Z 0009a7b0     QtGui4:QtGui4.dll
 0003:000007b4       __imp_?rect@QWidget@@QBA?AVQRect@@XZ 0009a7b4     QtGui4:QtGui4.dll
 0003:000007b8       __imp_?size@QFontMetrics@@QBA?AVQSize@@HABVQString@@HPAH@Z 0009a7b8     QtGui4:QtGui4.dll
 0003:000007bc       __imp_?setPalette@QWidget@@QAAXABVQPalette@@@Z 0009a7bc     QtGui4:QtGui4.dll
 0003:000007c0       __imp_??0QPalette@@QAA@XZ  0009a7c0     QtGui4:QtGui4.dll
 0003:000007c4       __imp_??1QPalette@@QAA@XZ  0009a7c4     QtGui4:QtGui4.dll
 0003:000007c8       __imp_?load@QPixmap@@QAA_NABVQString@@PBDV?$QFlags@W4ImageConversionFlag@Qt@@@@@Z 0009a7c8     QtGui4:QtGui4.dll
 0003:000007cc       __imp_?setCacheLimit@QPixmapCache@@SAXH@Z 0009a7cc     QtGui4:QtGui4.dll
 0003:000007d0       __imp_?find@QPixmapCache@@SA_NABVQString@@PAVQPixmap@@@Z 0009a7d0     QtGui4:QtGui4.dll
 0003:000007d4       __imp_?insert@QPixmapCache@@SA_NABVQString@@ABVQPixmap@@@Z 0009a7d4     QtGui4:QtGui4.dll
 0003:000007d8       __imp_??0QAbstractProxyModel@@QAA@PAVQObject@@@Z 0009a7d8     QtGui4:QtGui4.dll
 0003:000007dc       __imp_??1QAbstractProxyModel@@UAA@XZ 0009a7dc     QtGui4:QtGui4.dll
 0003:000007e0       __imp_?setSourceModel@QAbstractProxyModel@@UAAXPAVQAbstractItemModel@@@Z 0009a7e0     QtGui4:QtGui4.dll
 0003:000007e4       __imp_?sourceModel@QAbstractProxyModel@@QBAPAVQAbstractItemModel@@XZ 0009a7e4     QtGui4:QtGui4.dll
 0003:000007e8       __imp_?mapSelectionToSource@QAbstractProxyModel@@UBA?AVQItemSelection@@ABV2@@Z 0009a7e8     QtGui4:QtGui4.dll
 0003:000007ec       __imp_?mapSelectionFromSource@QAbstractProxyModel@@UBA?AVQItemSelection@@ABV2@@Z 0009a7ec     QtGui4:QtGui4.dll
 0003:000007f0       __imp_?submit@QAbstractProxyModel@@UAA_NXZ 0009a7f0     QtGui4:QtGui4.dll
 0003:000007f4       __imp_?revert@QAbstractProxyModel@@UAAXXZ 0009a7f4     QtGui4:QtGui4.dll
 0003:000007f8       __imp_?headerData@QAbstractProxyModel@@UBA?AVQVariant@@HW4Orientation@Qt@@H@Z 0009a7f8     QtGui4:QtGui4.dll
 0003:000007fc       __imp_?itemData@QAbstractProxyModel@@UBA?AV?$QMap@HVQVariant@@@@ABVQModelIndex@@@Z 0009a7fc     QtGui4:QtGui4.dll
 0003:00000800       __imp_?setData@QAbstractProxyModel@@UAA_NABVQModelIndex@@ABVQVariant@@H@Z 0009a800     QtGui4:QtGui4.dll
 0003:00000804       __imp_?setHeaderData@QAbstractProxyModel@@UAA_NHW4Orientation@Qt@@ABVQVariant@@H@Z 0009a804     QtGui4:QtGui4.dll
 0003:00000808       __imp_?setEnabled@QWidget@@QAAX_N@Z 0009a808     QtGui4:QtGui4.dll
 0003:0000080c       __imp_?x@QWidget@@QBAHXZ   0009a80c     QtGui4:QtGui4.dll
 0003:00000810       __imp_?y@QWidget@@QBAHXZ   0009a810     QtGui4:QtGui4.dll
 0003:00000814       __imp_?setWindowTitle@QWidget@@QAAXABVQString@@@Z 0009a814     QtGui4:QtGui4.dll
 0003:00000818       __imp_??0QColor@@QAA@HHHH@Z 0009a818     QtGui4:QtGui4.dll
 0003:0000081c       __imp_?hide@QWidget@@QAAXXZ 0009a81c     QtGui4:QtGui4.dll
 0003:00000820       __imp_?isVisible@QWidget@@QBA_NXZ 0009a820     QtGui4:QtGui4.dll
 0003:00000824       __imp_?move@QWidget@@QAAXHH@Z 0009a824     QtGui4:QtGui4.dll
 0003:00000828       __imp_?drawRoundedRect@QPainter@@QAAXHHHHMMW4SizeMode@Qt@@@Z 0009a828     QtGui4:QtGui4.dll
 0003:0000082c       __imp_?fillRect@QPainter@@QAAXABVQRect@@W4GlobalColor@Qt@@@Z 0009a82c     QtGui4:QtGui4.dll
 0003:00000830       __imp_?drawPixmap@QPainter@@QAAXHHABVQPixmap@@@Z 0009a830     QtGui4:QtGui4.dll
 0003:00000834       __imp_?drawPixmap@QPainter@@QAAXABVQPoint@@ABVQPixmap@@ABVQRect@@@Z 0009a834     QtGui4:QtGui4.dll
 0003:00000838       __imp_??0QFontMetrics@@QAA@ABVQFont@@@Z 0009a838     QtGui4:QtGui4.dll
 0003:0000083c       __imp_??1QFontMetrics@@QAA@XZ 0009a83c     QtGui4:QtGui4.dll
 0003:00000840       __imp_?elidedText@QFontMetrics@@QBA?AVQString@@ABV2@W4TextElideMode@Qt@@HH@Z 0009a840     QtGui4:QtGui4.dll
 0003:00000844       __imp_?metaObject@QWidget@@UBAPBUQMetaObject@@XZ 0009a844     QtGui4:QtGui4.dll
 0003:00000848       __imp_?qt_metacast@QWidget@@UAAPAXPBD@Z 0009a848     QtGui4:QtGui4.dll
 0003:0000084c       __imp_?qt_metacall@QWidget@@UAAHW4Call@QMetaObject@@HPAPAX@Z 0009a84c     QtGui4:QtGui4.dll
 0003:00000850       __imp_??0QWidget@@QAA@PAV0@V?$QFlags@W4WindowType@Qt@@@@@Z 0009a850     QtGui4:QtGui4.dll
 0003:00000854       __imp_??1QWidget@@UAA@XZ   0009a854     QtGui4:QtGui4.dll
 0003:00000858       __imp_?devType@QWidget@@UBAHXZ 0009a858     QtGui4:QtGui4.dll
 0003:0000085c       __imp_?pos@QWidget@@QBA?AVQPoint@@XZ 0009a85c     QtGui4:QtGui4.dll
 0003:00000860       __imp_?setFont@QWidget@@QAAXABVQFont@@@Z 0009a860     QtGui4:QtGui4.dll
 0003:00000864       __imp_?update@QWidget@@QAAXXZ 0009a864     QtGui4:QtGui4.dll
 0003:00000868       __imp_?repaint@QWidget@@QAAXXZ 0009a868     QtGui4:QtGui4.dll
 0003:0000086c       __imp_?setVisible@QWidget@@UAAX_N@Z 0009a86c     QtGui4:QtGui4.dll
 0003:00000870       __imp_?resize@QWidget@@QAAXABVQSize@@@Z 0009a870     QtGui4:QtGui4.dll
 0003:00000874       __imp_?setGeometry@QWidget@@QAAXABVQRect@@@Z 0009a874     QtGui4:QtGui4.dll
 0003:00000878       __imp_?sizeHint@QWidget@@UBA?AVQSize@@XZ 0009a878     QtGui4:QtGui4.dll
 0003:0000087c       __imp_?minimumSizeHint@QWidget@@UBA?AVQSize@@XZ 0009a87c     QtGui4:QtGui4.dll
 0003:00000880       __imp_?heightForWidth@QWidget@@UBAHH@Z 0009a880     QtGui4:QtGui4.dll
 0003:00000884       __imp_?getDC@QWidget@@UBAPAUHDC__@@XZ 0009a884     QtGui4:QtGui4.dll
 0003:00000888       __imp_?releaseDC@QWidget@@UBAXPAUHDC__@@@Z 0009a888     QtGui4:QtGui4.dll
 0003:0000088c       __imp_?paintEngine@QWidget@@UBAPAVQPaintEngine@@XZ 0009a88c     QtGui4:QtGui4.dll
 0003:00000890       __imp_?event@QWidget@@MAA_NPAVQEvent@@@Z 0009a890     QtGui4:QtGui4.dll
 0003:00000894       __imp_?mousePressEvent@QWidget@@MAAXPAVQMouseEvent@@@Z 0009a894     QtGui4:QtGui4.dll
 0003:00000898       __imp_?mouseReleaseEvent@QWidget@@MAAXPAVQMouseEvent@@@Z 0009a898     QtGui4:QtGui4.dll
 0003:0000089c       __imp_?mouseDoubleClickEvent@QWidget@@MAAXPAVQMouseEvent@@@Z 0009a89c     QtGui4:QtGui4.dll
 0003:000008a0       __imp_?mouseMoveEvent@QWidget@@MAAXPAVQMouseEvent@@@Z 0009a8a0     QtGui4:QtGui4.dll
 0003:000008a4       __imp_?keyPressEvent@QWidget@@MAAXPAVQKeyEvent@@@Z 0009a8a4     QtGui4:QtGui4.dll
 0003:000008a8       __imp_?keyReleaseEvent@QWidget@@MAAXPAVQKeyEvent@@@Z 0009a8a8     QtGui4:QtGui4.dll
 0003:000008ac       __imp_?focusInEvent@QWidget@@MAAXPAVQFocusEvent@@@Z 0009a8ac     QtGui4:QtGui4.dll
 0003:000008b0       __imp_?focusOutEvent@QWidget@@MAAXPAVQFocusEvent@@@Z 0009a8b0     QtGui4:QtGui4.dll
 0003:000008b4       __imp_?enterEvent@QWidget@@MAAXPAVQEvent@@@Z 0009a8b4     QtGui4:QtGui4.dll
 0003:000008b8       __imp_?leaveEvent@QWidget@@MAAXPAVQEvent@@@Z 0009a8b8     QtGui4:QtGui4.dll
 0003:000008bc       __imp_?paintEvent@QWidget@@MAAXPAVQPaintEvent@@@Z 0009a8bc     QtGui4:QtGui4.dll
 0003:000008c0       __imp_?moveEvent@QWidget@@MAAXPAVQMoveEvent@@@Z 0009a8c0     QtGui4:QtGui4.dll
 0003:000008c4       __imp_?resizeEvent@QWidget@@MAAXPAVQResizeEvent@@@Z 0009a8c4     QtGui4:QtGui4.dll
 0003:000008c8       __imp_?closeEvent@QWidget@@MAAXPAVQCloseEvent@@@Z 0009a8c8     QtGui4:QtGui4.dll
 0003:000008cc       __imp_?actionEvent@QWidget@@MAAXPAVQActionEvent@@@Z 0009a8cc     QtGui4:QtGui4.dll
 0003:000008d0       __imp_?showEvent@QWidget@@MAAXPAVQShowEvent@@@Z 0009a8d0     QtGui4:QtGui4.dll
 0003:000008d4       __imp_?hideEvent@QWidget@@MAAXPAVQHideEvent@@@Z 0009a8d4     QtGui4:QtGui4.dll
 0003:000008d8       __imp_?winEvent@QWidget@@MAA_NPAUtagMSG@@PAJ@Z 0009a8d8     QtGui4:QtGui4.dll
 0003:000008dc       __imp_?changeEvent@QWidget@@MAAXPAVQEvent@@@Z 0009a8dc     QtGui4:QtGui4.dll
 0003:000008e0       __imp_?metric@QWidget@@MBAHW4PaintDeviceMetric@QPaintDevice@@@Z 0009a8e0     QtGui4:QtGui4.dll
 0003:000008e4       __imp_?inputMethodEvent@QWidget@@MAAXPAVQInputMethodEvent@@@Z 0009a8e4     QtGui4:QtGui4.dll
 0003:000008e8       __imp_?inputMethodQuery@QWidget@@UBA?AVQVariant@@W4InputMethodQuery@Qt@@@Z 0009a8e8     QtGui4:QtGui4.dll
 0003:000008ec       __imp_?focusNextPrevChild@QWidget@@MAA_N_N@Z 0009a8ec     QtGui4:QtGui4.dll
 0003:000008f0       __imp_?styleChange@QWidget@@MAAXAAVQStyle@@@Z 0009a8f0     QtGui4:QtGui4.dll
 0003:000008f4       __imp_?enabledChange@QWidget@@MAAX_N@Z 0009a8f4     QtGui4:QtGui4.dll
 0003:000008f8       __imp_?paletteChange@QWidget@@MAAXABVQPalette@@@Z 0009a8f8     QtGui4:QtGui4.dll
 0003:000008fc       __imp_?fontChange@QWidget@@MAAXABVQFont@@@Z 0009a8fc     QtGui4:QtGui4.dll
 0003:00000900       __imp_?windowActivationChange@QWidget@@MAAX_N@Z 0009a900     QtGui4:QtGui4.dll
 0003:00000904       __imp_?languageChange@QWidget@@MAAXXZ 0009a904     QtGui4:QtGui4.dll
 0003:00000908       __imp_??0QPixmap@@QAA@ABVQSize@@@Z 0009a908     QtGui4:QtGui4.dll
 0003:0000090c       __imp_??0QPixmap@@QAA@XZ   0009a90c     QtGui4:QtGui4.dll
 0003:00000910       __imp_??1QPixmap@@UAA@XZ   0009a910     QtGui4:QtGui4.dll
 0003:00000914       __imp_?devType@QPixmap@@UBAHXZ 0009a914     QtGui4:QtGui4.dll
 0003:00000918       __imp_?width@QPixmap@@QBAHXZ 0009a918     QtGui4:QtGui4.dll
 0003:0000091c       __imp_?height@QPixmap@@QBAHXZ 0009a91c     QtGui4:QtGui4.dll
 0003:00000920       __imp_??1QFont@@QAA@XZ     0009a920     QtGui4:QtGui4.dll
 0003:00000924       __imp_??0QFont@@QAA@XZ     0009a924     QtGui4:QtGui4.dll
 0003:00000928       __imp_?exec@QApplication@@SAHXZ 0009a928     QtGui4:QtGui4.dll
 0003:0000092c       __imp_?paintEngine@QPixmap@@UBAPAVQPaintEngine@@XZ 0009a92c     QtGui4:QtGui4.dll
 0003:00000930       __imp_?metric@QPixmap@@MBAHW4PaintDeviceMetric@QPaintDevice@@@Z 0009a930     QtGui4:QtGui4.dll
 0003:00000934       __imp_?getDC@QPaintDevice@@UBAPAUHDC__@@XZ 0009a934     QtGui4:QtGui4.dll
 0003:00000938       __imp_?releaseDC@QPaintDevice@@UBAXPAUHDC__@@@Z 0009a938     QtGui4:QtGui4.dll
 0003:0000093c       __imp_??0QColor@@QAA@W4GlobalColor@Qt@@@Z 0009a93c     QtGui4:QtGui4.dll
 0003:00000940       __imp_??0QPainter@@QAA@PAVQPaintDevice@@@Z 0009a940     QtGui4:QtGui4.dll
 0003:00000944       __imp_??1QPainter@@QAA@XZ  0009a944     QtGui4:QtGui4.dll
 0003:00000948       __imp_?setFont@QPainter@@QAAXABVQFont@@@Z 0009a948     QtGui4:QtGui4.dll
 0003:0000094c       __imp_?setPen@QPainter@@QAAXW4PenStyle@Qt@@@Z 0009a94c     QtGui4:QtGui4.dll
 0003:00000950       __imp_?setPen@QPainter@@QAAXABVQColor@@@Z 0009a950     QtGui4:QtGui4.dll
 0003:00000954       __imp_?setBrush@QPainter@@QAAXABVQBrush@@@Z 0009a954     QtGui4:QtGui4.dll
 0003:00000958       __imp_?save@QPainter@@QAAXXZ 0009a958     QtGui4:QtGui4.dll
 0003:0000095c       __imp_?restore@QPainter@@QAAXXZ 0009a95c     QtGui4:QtGui4.dll
 0003:00000960       __imp_?drawText@QPainter@@QAAXABVQRect@@HABVQString@@PAV2@@Z 0009a960     QtGui4:QtGui4.dll
 0003:00000964       __imp_??0QBrush@@QAA@ABVQColor@@W4BrushStyle@Qt@@@Z 0009a964     QtGui4:QtGui4.dll
 0003:00000968       __imp_??1QBrush@@QAA@XZ    0009a968     QtGui4:QtGui4.dll
 0003:0000096c       __imp_?setPointSize@QFont@@QAAXH@Z 0009a96c     QtGui4:QtGui4.dll
 0003:00000970       __imp_?setBold@QFont@@QAAX_N@Z 0009a970     QtGui4:QtGui4.dll
 0003:00000974       __imp_?setGeometry@QWidget@@QAAXHHHH@Z 0009a974     QtGui4:QtGui4.dll
 0003:00000978       __imp_?show@QWidget@@QAAXXZ 0009a978     QtGui4:QtGui4.dll
 0003:0000097c       __imp_??0QApplication@@QAA@AAHPAPADH@Z 0009a97c     QtGui4:QtGui4.dll
 0003:00000980       __imp_??1QApplication@@UAA@XZ 0009a980     QtGui4:QtGui4.dll
 0003:00000984       __imp_?setFont@QApplication@@SAXABVQFont@@PBD@Z 0009a984     QtGui4:QtGui4.dll
 0003:00000988       __imp_?size@QPixmap@@QBA?AVQSize@@XZ 0009a988     QtGui4:QtGui4.dll
 0003:0000098c       \177QtGui4_NULL_THUNK_DATA 0009a98c     QtGui4:QtGui4.dll
 0003:00000990       __imp___CxxFrameHandler3   0009a990     MSVCRT:msvcr80.dll
 0003:00000994       __imp_strcpy_s             0009a994     MSVCRT:msvcr80.dll
 0003:00000998       \177msvcr80_NULL_THUNK_DATA 0009a998     MSVCRT:msvcr80.dll
 0003:0000099c       __security_cookie          0009a99c     corelibc:seccinit.obj
 0003:000009a0       __security_cookie_complement 0009a9a0     corelibc:seccinit.obj
 0003:000009ac       ??_R0?AVlogic_error@std@@@8 0009a9ac     libcpmt:string.obj
 0003:000009cc       ??_R0?AVlength_error@std@@@8 0009a9cc     libcpmt:string.obj
 0003:000009ec       ??_R0?AVout_of_range@std@@@8 0009a9ec     libcpmt:string.obj
 0003:00000ad0       ?staticMetaObject@ListView@Settings@@2UQMetaObject@@B 0009aad0     moc_listview.obj
 0003:00000ae0       ?staticMetaObject@NaviPathModel@Settings@@2UQMetaObject@@B 0009aae0     moc_settingmodel.obj
 0003:00000af0       ?staticMetaObject@SettingModel@Settings@@2UQMetaObject@@B 0009aaf0     moc_settingmodel.obj
 0003:00000b00       ?staticMetaObject@FindNaviThread@Settings@@2UQMetaObject@@B 0009ab00     moc_settingmodel.obj
 0003:00000b10       ?staticMetaObject@WalkModel@Settings@@2UQMetaObject@@B 0009ab10     moc_settingmodel.obj
 0003:00000b20       ?staticMetaObject@VersionModel@Settings@@2UQMetaObject@@B 0009ab20     moc_settingmodel.obj
 0003:00000b30       ?staticMetaObject@PageFactory@Settings@@2UQMetaObject@@B 0009ab30     moc_pagefactory.obj
 0003:00000b40       ?staticMetaObject@WallpaperWidget@Settings@@2UQMetaObject@@B 0009ab40     moc_wallpaperwidget.obj
 0003:00000b50       ?staticMetaObject@LoadImgThread@Settings@@2UQMetaObject@@B 0009ab50     moc_wallpaperwidget.obj
 0003:00000b60       ?staticMetaObject@PictureFlow@@2UQMetaObject@@B 0009ab60     moc_pictureflow.obj
 0003:00000b70       ?staticMetaObject@FormatSwitch@Settings@@2UQMetaObject@@B 0009ab70     moc_datetimewidget.obj
 0003:00000b80       ?staticMetaObject@DatetimeWidget@Settings@@2UQMetaObject@@B 0009ab80     moc_datetimewidget.obj
 0003:00000b90       ?staticMetaObject@ComfirmBox@Settings@@2UQMetaObject@@B 0009ab90     moc_comfirmbox.obj
 0003:00000ba0       ?staticMetaObject@ResetWidget@Settings@@2UQMetaObject@@B 0009aba0     moc_resetwidget.obj
 0003:00000bb0       ?staticMetaObject@CalibraWidget@Settings@@2UQMetaObject@@B 0009abb0     moc_calibrawidget.obj
 0003:00000bc0       ?staticMetaObject@WheelKeyWidget@Settings@@2UQMetaObject@@B 0009abc0     moc_wheelkeywidget.obj
 0003:00000bd0       ?staticMetaObject@KeyView@Settings@@2UQMetaObject@@B 0009abd0     moc_keyview.obj
 0003:00000be0       ?staticMetaObject@SpinBox@Settings@@2UQMetaObject@@B 0009abe0     moc_spinbox.obj
 0003:00000bf0       ?staticMetaObject@VSpinBox@Settings@@2UQMetaObject@@B 0009abf0     moc_numberpicker.obj
 0003:00000c00       ?staticMetaObject@BaseEditor@Settings@@2UQMetaObject@@B 0009ac00     moc_baseeditor.obj
 0003:00000c10       ?staticMetaObject@CommonWindow@common@@2UQMetaObject@@B 0009ac10     common:moc_commonwindow.obj
 0003:00000c20       ?staticMetaObject@AbstractButton@common@@2UQMetaObject@@B 0009ac20     common:moc_button.obj
 0003:00000c30       ?staticMetaObject@ButtonGroup@common@@2UQMetaObject@@B 0009ac30     common:moc_button.obj
 0003:00000c40       ?staticMetaObject@Toolbar@common@@2UQMetaObject@@B 0009ac40     common:moc_toolbar.obj
 0003:00000c50       ?staticMetaObject@MouseCapture@common@@2UQMetaObject@@B 0009ac50     common:moc_mousecapture.obj
 0003:00000c60       ?staticMetaObject@TitleBar@common@@2UQMetaObject@@B 0009ac60     common:moc_titlebar.obj
 0003:00000c70       ??_R0?AVListView@Settings@@@8 0009ac70     listview.obj
 0003:00000c90       ??_R0?AVQPixmap@@@8        0009ac90     listview.obj
 0003:00000ca8       ??_R0?AVQPaintDevice@@@8   0009aca8     listview.obj
 0003:00000cc4       ??_R0?AVQObject@@@8        0009acc4     listview.obj
 0003:00000cdc       ??_R0?AVQWidget@@@8        0009acdc     listview.obj
 0003:00000cf4       ??_R0?AVCommonWindow@common@@@8 0009acf4     window.obj
 0003:00000d18       ??_R0?AVWindow@Settings@@@8 0009ad18     window.obj
 0003:00000d38       ??_R0?AVQAbstractAnimation@@@8 0009ad38     window.obj
 0003:00000d5c       ??_R0?AVQVariantAnimation@@@8 0009ad5c     window.obj
 0003:00000d7c       ??_R0?AVQPropertyAnimation@@@8 0009ad7c     window.obj
 0003:00000da0       ??_R0?AVexception@std@@@8  0009ada0     window.obj
 0003:00000dbc       ??_R0?AVbad_alloc@std@@@8  0009adbc     window.obj
 0003:00000dd8       ??_R0?AVQThread@@@8        0009add8     settingmodel.obj
 0003:00000df0       ??_R0?AVFindNaviThread@Settings@@@8 0009adf0     settingmodel.obj
 0003:00000e18       ??_R0?AVNaviPathModel@Settings@@@8 0009ae18     settingmodel.obj
 0003:00000e40       ??_R0?AVVersionModel@Settings@@@8 0009ae40     settingmodel.obj
 0003:00000e64       ??_R0?AVQAbstractProxyModel@@@8 0009ae64     settingmodel.obj
 0003:00000e88       ??_R0?AVWalkModel@Settings@@@8 0009ae88     settingmodel.obj
 0003:00000eac       ??_R0?AVQAbstractItemModel@@@8 0009aeac     settingmodel.obj
 0003:00000ed0       ??_R0?AVSettingModel@Settings@@@8 0009aed0     settingmodel.obj
 0003:00000ef4       ??_R0?AVSlideSwitch@Settings@@@8 0009aef4     slideswitch.obj
 0003:00000f18       ??_R0?AVBaseEditor@Settings@@@8 0009af18     slideswitch.obj
 0003:00000f3c       ??_R0?AVPageFactory@Settings@@@8 0009af3c     pagefactory.obj
 0003:00000f60       ??_R0?AVWallpaperWidget@Settings@@@8 0009af60     wallpaperwidget.obj
 0003:00000f88       ??_R0?AVLoadImgThread@Settings@@@8 0009af88     wallpaperwidget.obj
 0003:00000fb0       ??_R0?AVQImage@@@8         0009afb0     wallpaperwidget.obj
 0003:00000fc8       ??_R0?AVPictureFlow@@@8    0009afc8     pictureflow.obj
 0003:00000fe4       ??_R0?AVDatetimeWidget@Settings@@@8 0009afe4     datetimewidget.obj
 0003:0000100c       ??_R0?AVFormatSwitch@Settings@@@8 0009b00c     datetimewidget.obj
 0003:00001030       ??_R0?AVQAbstractButton@@@8 0009b030     comfirmbox.obj
 0003:00001050       ??_R0?AVButton@?A0xd69e84ac@@@8 0009b050     comfirmbox.obj
 0003:00001074       ??_R0?AVComfirmBox@Settings@@@8 0009b074     comfirmbox.obj
 0003:00001098       ??_R0?AVResetWidget@Settings@@@8 0009b098     resetwidget.obj
 0003:000010bc       ??_R0?AVCalibraWidget@Settings@@@8 0009b0bc     calibrawidget.obj
 0003:000010e4       ??_R0?AVWheelKeyWidget@Settings@@@8 0009b0e4     wheelkeywidget.obj
 0003:0000110c       ??_R0?AVFlickable@Settings@@@8 0009b10c     flickable.obj
 0003:00001130       ??_R0?AVFlickableTicker@Settings@@@8 0009b130     flickable.obj
 0003:00001158       ??_R0?AVQEvent@@@8         0009b158     flickable.obj
 0003:00001170       ??_R0?AVQInputEvent@@@8    0009b170     flickable.obj
 0003:0000118c       ??_R0?AVQMouseEvent@@@8    0009b18c     flickable.obj
 0003:000011a8       ??_R0?AVQEmptyListModel@Settings@@@8 0009b1a8     keyview.obj
 0003:000011d0       ??_R0?AVKeyView@Settings@@@8 0009b1d0     keyview.obj
 0003:000011f0       ??_R0?AVSliderWidget@Settings@@@8 0009b1f0     slider.obj
 0003:00001214       ??_R0?AVQStyle@@@8         0009b214     slider.obj
 0003:0000122c       ??_R0?AVQCommonStyle@@@8   0009b22c     slider.obj
 0003:00001248       ??_R0?AVArthurStyle@Settings@@@8 0009b248     slider.obj
 0003:0000126c       ??_R0?AVQAbstractSlider@@@8 0009b26c     slider.obj
 0003:0000128c       ??_R0?AVQSlider@@@8        0009b28c     slider.obj
 0003:000012a4       ??_R0?AVQFrame@@@8         0009b2a4     slider.obj
 0003:000012bc       ??_R0?AVQLabel@@@8         0009b2bc     slider.obj
 0003:000012d4       ??_R0?AVNumberPicker@Settings@@@8 0009b2d4     numberpicker.obj
 0003:000012f8       ??_R0?AVVSpinBox@Settings@@@8 0009b2f8     numberpicker.obj
 0003:00001318       ??_R0?AVQTranslator@@@8    0009b318     common:commonwindow.obj
 0003:00001334       ??_R0?AVPushButton@common@@@8 0009b334     common:button.obj
 0003:00001354       ??_R0?AVAbstractButton@common@@@8 0009b354     common:button.obj
 0003:00001378       ??_R0?AVButtonGroup@common@@@8 0009b378     common:button.obj
 0003:0000139c       ??_R0?AVToolbar@common@@@8 0009b39c     common:toolbar.obj
 0003:000013bc       ??_R0?AVMouseCapture@common@@@8 0009b3bc     common:mousecapture.obj
 0003:000013e0       ??_R0?AVTitleBar@common@@@8 0009b3e0     common:titlebar.obj
 0003:00001400       _exitflag                  0009b400     corelibc:cexit.obj
 0003:00001404       ?McuAgVar@@3U_MCUAG_VAR_@@A 0009b404     McuAgent:McuAgent.obj
 0003:0000141c       ?pInstance@CShareMemory@@0PAV1@A 0009b41c     McuAgent:CShareMemory.obj
 0003:0000142c       ?hash@translation@Settings@@3V?$QHash@VQString@@V1@@@A 0009b42c     translation.obj
 0003:00001434       ?qCleanupResources_images__dest_instance__@@3VqCleanupResources_images__dest_class__@@A 0009b434     qrc_images.obj
 0003:00001480       ?qCleanupResources_common__dest_instance__@@3VqCleanupResources_common__dest_class__@@A 0009b480     common:qrc_common.obj
 0003:00001490       __onexitend                0009b490     <common>
 0003:00001494       __onexitbegin              0009b494     <common>

 entry point at        0001:00026d14

 Static symbols

 0001:00004b00       __catch$264605             00015b00 f i  CIL library: CIL module
 0001:00004b2c       __catch$264603             00015b2c f i  CIL library: CIL module
 0001:00005a84       ?skipUnknownElement@Settings@@YAXAAVQXmlStreamReader@@@Z 00016a84 f    CIL library: CIL module
 0001:0000b418       ?skipUnknownElement@@YAXAAVQXmlStreamReader@@@Z 0001c418 f    CIL library: CIL module
 0001:0000d25c       ?prepareSurface@@YA?AVQImage@@V1@HH@Z 0001e25c f    CIL library: CIL module
 0001:0001a6d4       ?deaccelerate@Settings@@YA?AVQPoint@@ABV2@HH@Z 0002b6d4 f    CIL library: CIL module
 0001:0001b2e0       ?qEmptyModel@Settings@@YAPAVQEmptyListModel@1@XZ 0002c2e0 f    CIL library: CIL module
 0001:00026a50       ?exception_handler@@YAJPAU_EXCEPTION_POINTERS@@@Z 00037a50 f    CIL library: CIL module
 0001:00026c9c       WinMainCRTStartupHelper    00037c9c f   corelibc:pegwmain.obj
 0001:00026df4       doexit                     00037df4 f   corelibc:cexit.obj
 0001:0002827c       __unwind$17555             0003927c f i libcpmt:string.obj
 0001:0002840c       __unwind$17851             0003940c f   libcpmt:string.obj
 0001:00028488       __unwind$18013             00039488 f i libcpmt:string.obj
 0001:000284e8       __unwind$18063             000394e8 f   libcpmt:string.obj
 0001:000286c0       ??__EWMID_TIMEFORMATCHANGED@@YAXXZ 000396c0 f    CIL library: CIL module
 0001:000286e0       ??__Ehash@translation@Settings@@YAXXZ 000396e0 f    CIL library: CIL module
 0001:00028720       ??__E?staticMetaObject@ListView@Settings@@2UQMetaObject@@B@@YAXXZ 00039720 f    CIL library: CIL module
 0001:0002873c       ??__E?staticMetaObject@SettingModel@Settings@@2UQMetaObject@@B@@YAXXZ 0003973c f    CIL library: CIL module
 0001:00028758       ??__E?staticMetaObject@WalkModel@Settings@@2UQMetaObject@@B@@YAXXZ 00039758 f    CIL library: CIL module
 0001:00028774       ??__E?staticMetaObject@VersionModel@Settings@@2UQMetaObject@@B@@YAXXZ 00039774 f    CIL library: CIL module
 0001:00028790       ??__E?staticMetaObject@FindNaviThread@Settings@@2UQMetaObject@@B@@YAXXZ 00039790 f    CIL library: CIL module
 0001:000287ac       ??__E?staticMetaObject@NaviPathModel@Settings@@2UQMetaObject@@B@@YAXXZ 000397ac f    CIL library: CIL module
 0001:000287c8       ??__E?staticMetaObject@PageFactory@Settings@@2UQMetaObject@@B@@YAXXZ 000397c8 f    CIL library: CIL module
 0001:000287e4       ??__E?staticMetaObject@WallpaperWidget@Settings@@2UQMetaObject@@B@@YAXXZ 000397e4 f    CIL library: CIL module
 0001:00028800       ??__E?staticMetaObject@LoadImgThread@Settings@@2UQMetaObject@@B@@YAXXZ 00039800 f    CIL library: CIL module
 0001:0002881c       ??__E?staticMetaObject@PictureFlow@@2UQMetaObject@@B@@YAXXZ 0003981c f    CIL library: CIL module
 0001:00028838       ??__E?staticMetaObject@FormatSwitch@Settings@@2UQMetaObject@@B@@YAXXZ 00039838 f    CIL library: CIL module
 0001:00028854       ??__E?staticMetaObject@DatetimeWidget@Settings@@2UQMetaObject@@B@@YAXXZ 00039854 f    CIL library: CIL module
 0001:00028870       ??__E?staticMetaObject@ComfirmBox@Settings@@2UQMetaObject@@B@@YAXXZ 00039870 f    CIL library: CIL module
 0001:0002888c       ??__E?staticMetaObject@ResetWidget@Settings@@2UQMetaObject@@B@@YAXXZ 0003988c f    CIL library: CIL module
 0001:000288a8       ??__E?staticMetaObject@CalibraWidget@Settings@@2UQMetaObject@@B@@YAXXZ 000398a8 f    CIL library: CIL module
 0001:000288c4       ??__E?staticMetaObject@WheelKeyWidget@Settings@@2UQMetaObject@@B@@YAXXZ 000398c4 f    CIL library: CIL module
 0001:000288e0       ??__E?staticMetaObject@KeyView@Settings@@2UQMetaObject@@B@@YAXXZ 000398e0 f    CIL library: CIL module
 0001:000288fc       ??__E?staticMetaObject@SpinBox@Settings@@2UQMetaObject@@B@@YAXXZ 000398fc f    CIL library: CIL module
 0001:00028918       ??__E?staticMetaObject@VSpinBox@Settings@@2UQMetaObject@@B@@YAXXZ 00039918 f    CIL library: CIL module
 0001:00028934       ??__E?staticMetaObject@BaseEditor@Settings@@2UQMetaObject@@B@@YAXXZ 00039934 f    CIL library: CIL module
 0001:00028950       ??__EqInitResources_images__init_variable__@@YAXXZ 00039950 f    CIL library: CIL module
 0001:000289a0       ??__EqCleanupResources_images__dest_instance__@@YAXXZ 000399a0 f    CIL library: CIL module
 0001:000289ac       ??__E?staticMetaObject@CommonWindow@common@@2UQMetaObject@@B@@YAXXZ 000399ac f    CIL library: CIL module
 0001:000289c8       ??__ETRIANGLE@@YAXXZ       000399c8 f    CIL library: CIL module
 0001:00028a08       ??__ELINE@@YAXXZ           00039a08 f    CIL library: CIL module
 0001:00028a34       ??__ECROSS@@YAXXZ          00039a34 f    CIL library: CIL module
 0001:00028a80       ??__EqInitResources_common__init_variable__@@YAXXZ 00039a80 f    CIL library: CIL module
 0001:00028ae0       ??__EqCleanupResources_common__dest_instance__@@YAXXZ 00039ae0 f    CIL library: CIL module
 0001:00028aec       ??__E?staticMetaObject@AbstractButton@common@@2UQMetaObject@@B@@YAXXZ 00039aec f    CIL library: CIL module
 0001:00028b08       ??__E?staticMetaObject@ButtonGroup@common@@2UQMetaObject@@B@@YAXXZ 00039b08 f    CIL library: CIL module
 0001:00028b24       ??__E?staticMetaObject@Toolbar@common@@2UQMetaObject@@B@@YAXXZ 00039b24 f    CIL library: CIL module
 0001:00028b40       ??__E?staticMetaObject@MouseCapture@common@@2UQMetaObject@@B@@YAXXZ 00039b40 f    CIL library: CIL module
 0001:00028b5c       ??__E?staticMetaObject@TitleBar@common@@2UQMetaObject@@B@@YAXXZ 00039b5c f    CIL library: CIL module
 0001:00028b78       ??__Fhash@translation@Settings@@YAXXZ 00039b78 f    CIL library: CIL module
 0001:00028bc4       ??__Fcleanup@?7??qEmptyModel@Settings@@YAPAVQEmptyListModel@1@XZ@YAXXZ 00039bc4 f    CIL library: CIL module
 0001:00028c0c       ??__FqCleanupResources_images__dest_instance__@@YAXXZ 00039c0c f    CIL library: CIL module
 0001:00028c44       ??__FqCleanupResources_common__dest_instance__@@YAXXZ 00039c44 f    CIL library: CIL module
